	.cpu cortex-a9
	.fpu softvfp
	.eabi_attribute 20, 1
	.eabi_attribute 21, 1
	.eabi_attribute 23, 3
	.eabi_attribute 24, 1
	.eabi_attribute 25, 1
	.eabi_attribute 26, 1
	.eabi_attribute 30, 2
	.eabi_attribute 34, 1
	.eabi_attribute 18, 4
	.file	"kernel_final.c"
	.text
.Ltext0:
	.cfi_sections	.debug_frame
	.align	2
	.type	armv_contextSwitch_HWASID, %function
armv_contextSwitch_HWASID:
.LFB317:
	.file 1 "/home/neelesh/research/seL4-tutorials-manifest/kernel/include/arch/arm/armv/armv7-a/armv/context_switch.h"
	.loc 1 26 0
	.cfi_startproc
	@ args = 0, pretend = 0, frame = 0
	@ frame_needed = 0, uses_anonymous_args = 0
	@ link register save eliminated.
.LVL0:
.LBB4069:
.LBB4070:
	.file 2 "/home/neelesh/research/seL4-tutorials-manifest/kernel/include/arch/arm/armv/armv7-a/armv/machine.h"
	.loc 2 17 0
@ 17 "/home/neelesh/research/seL4-tutorials-manifest/kernel/include/arch/arm/armv/armv7-a/armv/machine.h" 1
	dsb
@ 0 "" 2
.LVL1:
.LBE4070:
.LBE4069:
.LBB4071:
.LBB4072:
	.file 3 "/home/neelesh/research/seL4-tutorials-manifest/kernel/include/plat/zynq7000/plat/machine/hardware.h"
	.loc 3 51 0
	ldr	r3, .L2
.LBE4072:
.LBE4071:
.LBB4073:
.LBB4074:
	.file 4 "/home/neelesh/research/seL4-tutorials-manifest/kernel/include/arch/arm/arch/machine.h"
	.loc 4 136 0
	bic	r3, r3, #8128
	bic	r3, r3, #63
	orr	r3, r3, #24
	.loc 4 135 0
@ 135 "/home/neelesh/research/seL4-tutorials-manifest/kernel/include/arch/arm/arch/machine.h" 1
	mcr p15, 0, r3, c2, c0, 0
@ 0 "" 2
.LBE4074:
.LBE4073:
.LBB4075:
.LBB4076:
	.loc 2 29 0
@ 29 "/home/neelesh/research/seL4-tutorials-manifest/kernel/include/arch/arm/armv/armv7-a/armv/machine.h" 1
	isb
@ 0 "" 2
.LVL2:
.LBE4076:
.LBE4075:
.LBB4077:
.LBB4078:
.LBB4079:
.LBB4080:
	.loc 4 123 0
@ 123 "/home/neelesh/research/seL4-tutorials-manifest/kernel/include/arch/arm/arch/machine.h" 1
	mcr p15, 0, r1, c13, c0, 1
@ 0 "" 2
.LBB4081:
.LBB4082:
	.loc 2 29 0
@ 29 "/home/neelesh/research/seL4-tutorials-manifest/kernel/include/arch/arm/armv/armv7-a/armv/machine.h" 1
	isb
@ 0 "" 2
.LVL3:
.LBE4082:
.LBE4081:
.LBE4080:
.LBE4079:
.LBE4078:
.LBE4077:
.LBB4083:
.LBB4084:
	.loc 3 51 0
	add	r0, r0, #536870912
.LVL4:
.LBE4084:
.LBE4083:
.LBB4085:
.LBB4086:
	.loc 4 136 0
	bic	r0, r0, #8128
.LVL5:
	bic	r0, r0, #63
	orr	r0, r0, #24
	.loc 4 135 0
@ 135 "/home/neelesh/research/seL4-tutorials-manifest/kernel/include/arch/arm/arch/machine.h" 1
	mcr p15, 0, r0, c2, c0, 0
@ 0 "" 2
.LBE4086:
.LBE4085:
.LBB4087:
.LBB4088:
	.loc 2 29 0
@ 29 "/home/neelesh/research/seL4-tutorials-manifest/kernel/include/arch/arm/armv/armv7-a/armv/machine.h" 1
	isb
@ 0 "" 2
	bx	lr
.L3:
	.align	2
.L2:
	.word	.LANCHOR0+536870912
.LBE4088:
.LBE4087:
	.cfi_endproc
.LFE317:
	.size	armv_contextSwitch_HWASID, .-armv_contextSwitch_HWASID
	.align	2
	.type	putEncodedChar, %function
putEncodedChar:
.LFB392:
	.file 5 "/home/neelesh/research/seL4-tutorials-manifest/kernel/src/arch/arm/machine/capdl.c"
	.loc 5 62 0
	.cfi_startproc
	@ args = 0, pretend = 0, frame = 0
	@ frame_needed = 0, uses_anonymous_args = 0
	@ link register save eliminated.
.LVL6:
	.loc 5 63 0
	cmp	r0, #187
.LBB4089:
.LBB4090:
	.file 6 "/home/neelesh/research/seL4-tutorials-manifest/kernel/src/plat/zynq7000/machine/io.c"
	.loc 6 52 0
	mvn	r1, #1040384
.LBE4090:
.LBE4089:
	.loc 5 63 0
	beq	.L6
	cmp	r0, #255
	beq	.L7
	cmp	r0, #170
	beq	.L8
	.loc 5 77 0
	cmp	r0, #19
	bhi	.L29
.L28:
.LBB4093:
.LBB4094:
	.loc 6 52 0
	ldr	r3, [r1, #-4051]
	mvn	r2, #1040384
	tst	r3, #8
	beq	.L28
.LBE4094:
.LBE4093:
	.loc 5 79 0
	add	r0, r0, #20
.LVL7:
.LBB4096:
.LBB4097:
	.loc 6 52 0
	mov	r1, r2
.LBE4097:
.LBE4096:
	.loc 5 79 0
	uxtb	r0, r0
.LVL8:
.LBB4099:
.LBB4095:
	.loc 6 53 0
	mov	r3, #170
	str	r3, [r2, #-4047]
.L15:
.LBE4095:
.LBE4099:
.LBB4100:
.LBB4098:
	.loc 6 52 0
	ldr	r3, [r1, #-4051]
	mvn	r2, #1040384
	tst	r3, #8
	beq	.L15
.LVL9:
.L42:
.LBE4098:
.LBE4100:
.LBB4101:
.LBB4102:
	.loc 6 53 0
	str	r0, [r2, #-4047]
	bx	lr
.LVL10:
.L6:
.LBE4102:
.LBE4101:
.LBB4104:
.LBB4091:
	.loc 6 52 0
	ldr	r3, [r1, #-4051]
	mvn	r2, #1040384
	tst	r3, #8
	beq	.L6
.LBE4091:
.LBE4104:
.LBB4105:
.LBB4106:
	mov	r1, r2
.LBE4106:
.LBE4105:
.LBB4108:
.LBB4092:
	.loc 6 53 0
	mov	r3, #170
	str	r3, [r2, #-4047]
.LVL11:
.L12:
.LBE4092:
.LBE4108:
.LBB4109:
.LBB4107:
	.loc 6 52 0
	ldr	r3, [r1, #-4051]
	mvn	r2, #1040384
	tst	r3, #8
	beq	.L12
	.loc 6 53 0
	mov	r3, #162
	str	r3, [r2, #-4047]
	bx	lr
.LVL12:
.L8:
.LBE4107:
.LBE4109:
.LBB4110:
.LBB4111:
	.loc 6 52 0
	ldr	r3, [r1, #-4051]
	mvn	r2, #1040384
	tst	r3, #8
	beq	.L8
.LBE4111:
.LBE4110:
.LBB4113:
.LBB4114:
	mov	r1, r2
.LBE4114:
.LBE4113:
.LBB4116:
.LBB4112:
	.loc 6 53 0
	mov	r3, #170
	str	r3, [r2, #-4047]
.LVL13:
.L9:
.LBE4112:
.LBE4116:
.LBB4117:
.LBB4115:
	.loc 6 52 0
	ldr	r3, [r1, #-4051]
	mvn	r2, #1040384
	tst	r3, #8
	beq	.L9
	.loc 6 53 0
	mov	r3, #161
	str	r3, [r2, #-4047]
	bx	lr
.LVL14:
.L7:
.LBE4115:
.LBE4117:
.LBB4118:
.LBB4119:
	.loc 6 52 0
	ldr	r3, [r1, #-4051]
	mvn	r2, #1040384
	tst	r3, #8
	beq	.L7
.LBE4119:
.LBE4118:
.LBB4121:
.LBB4122:
	mov	r1, r2
.LBE4122:
.LBE4121:
.LBB4124:
.LBB4120:
	.loc 6 53 0
	mov	r3, #170
	str	r3, [r2, #-4047]
.LVL15:
.L11:
.LBE4120:
.LBE4124:
.LBB4125:
.LBB4123:
	.loc 6 52 0
	ldr	r3, [r1, #-4051]
	mvn	r2, #1040384
	tst	r3, #8
	beq	.L11
	.loc 6 53 0
	mov	r3, #160
	str	r3, [r2, #-4047]
	bx	lr
.LVL16:
.L29:
.LBE4123:
.LBE4125:
.LBB4126:
.LBB4103:
	.loc 6 52 0
	ldr	r3, [r1, #-4051]
	mvn	r2, #1040384
	tst	r3, #8
	bne	.L42
	ldr	r3, [r1, #-4051]
	mvn	r2, #1040384
	tst	r3, #8
	beq	.L29
	b	.L42
.LBE4103:
.LBE4126:
	.cfi_endproc
.LFE392:
	.size	putEncodedChar, .-putEncodedChar
	.align	2
	.type	sendWord, %function
sendWord:
.LFB394:
	.loc 5 109 0
	.cfi_startproc
	@ args = 0, pretend = 0, frame = 0
	@ frame_needed = 0, uses_anonymous_args = 0
.LVL17:
	stmfd	sp!, {r4, lr}
	.cfi_def_cfa_offset 8
	.cfi_offset 4, -8
	.cfi_offset 14, -4
	.loc 5 109 0
	mov	r4, r0
	.loc 5 110 0
	uxtb	r0, r0
.LVL18:
	bl	putEncodedChar
.LVL19:
	.loc 5 111 0
	ubfx	r0, r4, #8, #8
	bl	putEncodedChar
.LVL20:
	.loc 5 112 0
	ubfx	r0, r4, #16, #8
	bl	putEncodedChar
.LVL21:
	.loc 5 113 0
	mov	r0, r4, lsr #24
	.loc 5 114 0
	ldmfd	sp!, {r4, lr}
	.cfi_restore 14
	.cfi_restore 4
	.cfi_def_cfa_offset 0
.LVL22:
	.loc 5 113 0
	b	putEncodedChar
.LVL23:
	.cfi_endproc
.LFE394:
	.size	sendWord, .-sendWord
	.section	.boot.text,"ax",%progbits
	.align	2
	.type	dist_init, %function
dist_init:
.LFB433:
	.file 7 "/home/neelesh/research/seL4-tutorials-manifest/kernel/src/arch/arm/machine/gic_pl390.c"
	.loc 7 217 0
	.cfi_startproc
	@ args = 0, pretend = 0, frame = 0
	@ frame_needed = 0, uses_anonymous_args = 0
	@ link register save eliminated.
	.loc 7 219 0
	movw	r3, #:lower16:.LANCHOR1
	.loc 7 220 0
	mov	r1, #0
	.loc 7 219 0
	movt	r3, #:upper16:.LANCHOR1
	.loc 7 222 0
	mov	r0, r1
	.loc 7 219 0
	ldr	r2, [r3]
	.loc 7 224 0
	mvn	ip, #0
	.loc 7 219 0
	ldr	r3, [r2, #4]
	.loc 7 220 0
	str	r1, [r2]
	.loc 7 219 0
	and	r3, r3, #31
	add	r3, r3, #1
	mov	r3, r3, asl #5
.LVL24:
.L48:
	.loc 7 224 0 discriminator 3
	mov	r1, r0, asr #5
	.loc 7 222 0 discriminator 3
	add	r0, r0, #32
.LVL25:
	cmp	r3, r0
	add	r1, r2, r1, asl #2
	.loc 7 224 0 discriminator 3
	str	ip, [r1, #384]
	.loc 7 226 0 discriminator 3
	str	ip, [r1, #640]
	.loc 7 222 0 discriminator 3
	bgt	.L48
.LVL26:
	.loc 7 230 0 discriminator 1
	cmp	r3, #32
	beq	.L49
	.loc 7 230 0 is_stmt 0
	mov	r1, #32
	.loc 7 231 0 is_stmt 1
	mov	ip, #0
.LVL27:
.L50:
	.loc 7 231 0 is_stmt 0 discriminator 3
	mov	r0, r1, asr #2
	.loc 7 230 0 is_stmt 1 discriminator 3
	add	r1, r1, #4
.LVL28:
	cmp	r3, r1
	.loc 7 231 0 discriminator 3
	add	r0, r0, #256
	str	ip, [r2, r0, asl #2]
	.loc 7 230 0 discriminator 3
	bgt	.L50
.LVL29:
.L49:
	.loc 7 230 0 is_stmt 0
	mov	r1, #0
.LVL30:
.L51:
	.loc 7 239 0 is_stmt 1 discriminator 3
	mov	r0, r1, asr #2
	.loc 7 238 0 discriminator 3
	add	r1, r1, #4
.LVL31:
	.loc 7 239 0 discriminator 3
	movw	ip, #257
	.loc 7 238 0 discriminator 3
	cmp	r3, r1
	.loc 7 239 0 discriminator 3
	add	r0, r0, #512
	bfi	ip, ip, #16, #16
	str	ip, [r2, r0, asl #2]
	.loc 7 238 0 discriminator 3
	bgt	.L51
.LVL32:
	.loc 7 243 0 discriminator 1
	cmp	r3, #64
	ble	.L52
	.loc 7 243 0 is_stmt 0
	mov	r1, #64
.LVL33:
.L53:
	.loc 7 244 0 is_stmt 1 discriminator 3
	mov	r0, r1, asr #5
	.loc 7 243 0 discriminator 3
	add	r1, r1, #32
.LVL34:
	.loc 7 244 0 discriminator 3
	movw	ip, #21845
	.loc 7 243 0 discriminator 3
	cmp	r3, r1
	.loc 7 244 0 discriminator 3
	add	r0, r0, #768
	bfi	ip, ip, #16, #16
	str	ip, [r2, r0, asl #2]
	.loc 7 243 0 discriminator 3
	bgt	.L53
.LVL35:
.L52:
	.loc 7 243 0 is_stmt 0
	mov	r1, #0
	.loc 7 248 0 is_stmt 1
	mov	ip, r1
.LVL36:
.L54:
	.loc 7 248 0 is_stmt 0 discriminator 3
	mov	r0, r1, asr #5
	.loc 7 247 0 is_stmt 1 discriminator 3
	add	r1, r1, #32
.LVL37:
	cmp	r3, r1
	.loc 7 248 0 discriminator 3
	add	r0, r0, #32
	str	ip, [r2, r0, asl #2]
	.loc 7 247 0 discriminator 3
	bgt	.L54
	.loc 7 251 0
	mov	r3, #1
.LVL38:
	str	r3, [r2]
	bx	lr
	.cfi_endproc
.LFE433:
	.size	dist_init, .-dist_init
	.align	2
	.type	cpu_iface_init, %function
cpu_iface_init:
.LFB434:
	.loc 7 259 0
	.cfi_startproc
	@ args = 0, pretend = 0, frame = 0
	@ frame_needed = 0, uses_anonymous_args = 0
	.loc 7 263 0
	movw	r2, #:lower16:.LANCHOR1
	.loc 7 259 0
	stmfd	sp!, {r4, lr}
	.cfi_def_cfa_offset 8
	.cfi_offset 4, -8
	.cfi_offset 14, -4
	.loc 7 263 0
	movt	r2, #:upper16:.LANCHOR1
	mvn	r1, #0
	.loc 7 265 0
	mov	ip, #0
	.loc 7 274 0
	mov	r4, #240
	.loc 7 263 0
	ldr	r3, [r2]
	.loc 7 275 0
	mov	lr, #3
	.loc 7 273 0
	ldr	r2, [r2, #4]
	.loc 7 277 0
	movw	r0, #1023
	.loc 7 263 0
	str	r1, [r3, #384]
	.loc 7 264 0
	str	r1, [r3, #640]
	.loc 7 265 0
	str	ip, [r3, #1024]
.LVL39:
	.loc 7 270 0
	str	r1, [r3, #3856]
.LVL40:
	str	r1, [r3, #3860]
.LVL41:
	str	r1, [r3, #3864]
.LVL42:
	str	r1, [r3, #3868]
.LVL43:
	.loc 7 273 0
	str	ip, [r2]
	.loc 7 274 0
	str	r4, [r2, #4]
	.loc 7 275 0
	str	lr, [r2, #8]
	.loc 7 277 0
	ldr	r3, [r2, #12]
.LVL44:
	ubfx	r1, r3, #0, #10
	cmp	r1, r0
	beq	.L67
.L66:
	.loc 7 278 0
	str	r3, [r2, #16]
	.loc 7 277 0
	ldr	r3, [r2, #12]
.LVL45:
	ubfx	r1, r3, #0, #10
	cmp	r1, r0
	bne	.L66
.L67:
	.loc 7 280 0
	mov	r3, #1
.LVL46:
	str	r3, [r2]
	ldmfd	sp!, {r4, pc}
	.cfi_endproc
.LFE434:
	.size	cpu_iface_init, .-cpu_iface_init
	.text
	.align	2
	.type	maskInterrupt.part.50, %function
maskInterrupt.part.50:
.LFB741:
	.loc 7 343 0
	.cfi_startproc
	@ args = 0, pretend = 0, frame = 0
	@ frame_needed = 0, uses_anonymous_args = 0
	@ link register save eliminated.
.LVL47:
.LBB4127:
.LBB4128:
	.loc 7 199 0
	movw	r2, #:lower16:.LANCHOR1
.LVL48:
	.loc 7 196 0
	mov	r3, r0, lsr #5
.LVL49:
	.loc 7 199 0
	movt	r2, #:upper16:.LANCHOR1
	ldr	r1, [r2]
	.loc 7 197 0
	and	r0, r0, #31
.LVL50:
	.loc 7 199 0
	mov	r2, #1
	add	r3, r3, #96
.LVL51:
	mov	r0, r2, asl r0
	str	r0, [r1, r3, asl #2]
	bx	lr
.LBE4128:
.LBE4127:
	.cfi_endproc
.LFE741:
	.size	maskInterrupt.part.50, .-maskInterrupt.part.50
	.align	2
	.type	preemptionPoint.part.51, %function
preemptionPoint.part.51:
.LFB742:
	.file 8 "/home/neelesh/research/seL4-tutorials-manifest/kernel/src/model/preemption.c"
	.loc 8 21 0
	.cfi_startproc
	@ args = 0, pretend = 0, frame = 0
	@ frame_needed = 0, uses_anonymous_args = 0
	@ link register save eliminated.
.LBB4129:
.LBB4130:
	.loc 7 335 0
	movw	r2, #:lower16:.LANCHOR1
.LBE4130:
.LBE4129:
	.loc 8 35 0
	movw	r3, #:lower16:ksWorkUnitsCompleted
.LBB4134:
.LBB4131:
	.loc 7 335 0
	movt	r2, #:upper16:.LANCHOR1
.LBE4131:
.LBE4134:
	.loc 8 35 0
	mov	r1, #0
.LBB4135:
.LBB4132:
	.loc 7 335 0
	ldr	r2, [r2, #4]
.LBE4132:
.LBE4135:
	.loc 8 35 0
	movt	r3, #:upper16:ksWorkUnitsCompleted
	str	r1, [r3]
.LBB4136:
.LBB4133:
	.loc 7 335 0
	ldr	r3, [r2, #24]
	ubfx	r3, r3, #0, #10
.LBE4133:
.LBE4136:
	.loc 8 36 0
	cmp	r3, #1020
	.loc 8 42 0
	movcc	r0, #4
	movcs	r0, r1
	bx	lr
	.cfi_endproc
.LFE742:
	.size	preemptionPoint.part.51, .-preemptionPoint.part.51
	.align	2
	.type	getDecodedChar, %function
getDecodedChar:
.LFB391:
	.loc 5 28 0
	.cfi_startproc
	@ args = 0, pretend = 0, frame = 0
	@ frame_needed = 0, uses_anonymous_args = 0
	@ link register save eliminated.
.LVL52:
.LBB4145:
.LBB4146:
	.loc 6 58 0
	mvn	r1, #1040384
.L76:
	ldr	r3, [r1, #-4051]
	mvn	r2, #1040384
	tst	r3, #256
	beq	.L76
	.loc 6 59 0
	ldr	r3, [r2, #-4047]
	uxtb	r3, r3
.LBE4146:
.LBE4145:
	.loc 5 31 0
	cmp	r3, #255
	beq	.L85
	.loc 5 34 0
	cmp	r3, #170
	beq	.L79
.L78:
	.loc 5 56 0
	strb	r3, [r0]
	.loc 5 57 0
	mov	r3, #0
.L77:
	.loc 5 59 0
	mov	r0, r3
.LVL53:
	bx	lr
.LVL54:
.L79:
.LBB4147:
.LBB4148:
.LBB4149:
.LBB4150:
	.loc 6 58 0
	ldr	r3, [r2, #-4051]
	mvn	r1, #1040384
	tst	r3, #256
	beq	.L79
	.loc 6 59 0
	ldr	r3, [r1, #-4047]
	uxtb	r3, r3
.LBE4150:
.LBE4149:
	.loc 5 36 0
	cmp	r3, #255
	beq	.L85
	.loc 5 39 0
	cmp	r3, #161
	beq	.L81
	cmp	r3, #162
	beq	.L82
	cmp	r3, #160
	beq	.L93
	.loc 5 50 0
	sub	r3, r3, #20
	uxtb	r3, r3
	cmp	r3, #19
	.loc 5 54 0
	movhi	r3, #0
	.loc 5 50 0
	bhi	.L77
	b	.L78
.L85:
.LBE4148:
.LBE4147:
	.loc 5 32 0
	mov	r3, #1
	.loc 5 59 0
	mov	r0, r3
.LVL55:
	bx	lr
.LVL56:
.L81:
.LBB4152:
.LBB4151:
	.loc 5 41 0
	mvn	r2, #85
	.loc 5 54 0
	mov	r3, #0
	.loc 5 41 0
	strb	r2, [r0]
	b	.L77
.L93:
	.loc 5 44 0
	mvn	r2, #0
	.loc 5 54 0
	mov	r3, #0
	.loc 5 44 0
	strb	r2, [r0]
	b	.L77
.L82:
	.loc 5 47 0
	mvn	r2, #68
	.loc 5 54 0
	mov	r3, #0
	.loc 5 47 0
	strb	r2, [r0]
	b	.L77
.LBE4151:
.LBE4152:
	.cfi_endproc
.LFE391:
	.size	getDecodedChar, .-getDecodedChar
	.align	2
	.type	getArg32, %function
getArg32:
.LFB393:
	.loc 5 87 0
	.cfi_startproc
	@ args = 0, pretend = 0, frame = 8
	@ frame_needed = 0, uses_anonymous_args = 0
.LVL57:
	stmfd	sp!, {r4, lr}
	.cfi_def_cfa_offset 8
	.cfi_offset 4, -8
	.cfi_offset 14, -4
	sub	sp, sp, #8
	.cfi_def_cfa_offset 16
	.loc 5 88 0
	mov	r3, #0
	.loc 5 87 0
	mov	r4, r0
	.loc 5 92 0
	add	r0, sp, #4
.LVL58:
	.loc 5 88 0
	strb	r3, [sp, #4]
	.loc 5 89 0
	strb	r3, [sp, #5]
	.loc 5 90 0
	strb	r3, [sp, #6]
	.loc 5 91 0
	strb	r3, [sp, #7]
	.loc 5 92 0
	bl	getDecodedChar
.LVL59:
	cmp	r0, #0
	beq	.L95
.L97:
	.loc 5 93 0
	mov	r0, #1
.L96:
	.loc 5 106 0
	add	sp, sp, #8
	.cfi_remember_state
	.cfi_def_cfa_offset 8
	@ sp needed
	ldmfd	sp!, {r4, pc}
.LVL60:
.L95:
	.cfi_restore_state
	.loc 5 95 0
	add	r0, sp, #5
	bl	getDecodedChar
.LVL61:
	cmp	r0, #0
	bne	.L97
	.loc 5 98 0
	add	r0, sp, #6
	bl	getDecodedChar
.LVL62:
	cmp	r0, #0
	bne	.L97
	.loc 5 101 0
	add	r0, sp, #7
	bl	getDecodedChar
.LVL63:
	cmp	r0, #0
	bne	.L97
	.loc 5 104 0
	ldrb	r1, [sp, #5]	@ zero_extendqisi2
	ldrb	r3, [sp, #4]	@ zero_extendqisi2
	ldrb	r2, [sp, #7]	@ zero_extendqisi2
	ldrb	ip, [sp, #6]	@ zero_extendqisi2
	mov	r1, r1, asl #16
	orr	r3, r1, r3, asl #24
	orr	r3, r3, r2
	orr	r3, r3, ip, asl #8
	str	r3, [r4]
	.loc 5 105 0
	b	.L96
	.cfi_endproc
.LFE393:
	.size	getArg32, .-getArg32
	.align	2
	.global	clean_D_PoU
	.type	clean_D_PoU, %function
clean_D_PoU:
.LFB293:
	.file 9 "/home/neelesh/research/seL4-tutorials-manifest/kernel/src/arch/arm/armv/armv7-a/cache.c"
	.loc 9 73 0
	.cfi_startproc
	@ args = 0, pretend = 0, frame = 0
	@ frame_needed = 0, uses_anonymous_args = 0
	stmfd	sp!, {r4, r5, r6, r7, r8, r9, r10, lr}
	.cfi_def_cfa_offset 32
	.cfi_offset 4, -32
	.cfi_offset 5, -28
	.cfi_offset 6, -24
	.cfi_offset 7, -20
	.cfi_offset 8, -16
	.cfi_offset 9, -12
	.cfi_offset 10, -8
	.cfi_offset 14, -4
.LBB4153:
.LBB4154:
	.loc 9 32 0
@ 32 "/home/neelesh/research/seL4-tutorials-manifest/kernel/src/arch/arm/armv/armv7-a/cache.c" 1
	mrc p15, 1, r8, c0, c0, 1
@ 0 "" 2
.LVL64:
.LBE4154:
.LBE4153:
	.loc 9 75 0
	ubfx	r7, r8, #27, #3
.LVL65:
	.loc 9 78 0
	cmp	r7, #0
	ldmeqfd	sp!, {r4, r5, r6, r7, r8, r9, r10, pc}
	mov	r5, #0
	add	r7, r7, r7, asl #1
.LVL66:
	mov	r6, r5
.LVL67:
.L104:
	.loc 9 79 0
	mov	r3, r8, asr r5
	and	r3, r3, #7
	cmp	r3, #1
	bls	.L101
.LVL68:
.LBB4155:
.LBB4156:
.LBB4157:
	.loc 9 53 0
@ 53 "/home/neelesh/research/seL4-tutorials-manifest/kernel/src/arch/arm/armv/armv7-a/cache.c" 1
	mrc p15, 2, r2, c0, c0, 0
@ 0 "" 2
	.loc 9 55 0
	mov	r4, r6, asl #1
@ 55 "/home/neelesh/research/seL4-tutorials-manifest/kernel/src/arch/arm/armv/armv7-a/cache.c" 1
	mcr p15, 2, r4, c0, c0, 0
@ 0 "" 2
	.loc 9 57 0
@ 57 "/home/neelesh/research/seL4-tutorials-manifest/kernel/src/arch/arm/armv/armv7-a/cache.c" 1
	mrc p15, 1, r3, c0, c0, 0
@ 0 "" 2
	.loc 9 59 0
@ 59 "/home/neelesh/research/seL4-tutorials-manifest/kernel/src/arch/arm/armv/armv7-a/cache.c" 1
	mcr p15, 2, r2, c0, c0, 0
@ 0 "" 2
.LBE4157:
.LBE4156:
	.loc 9 82 0
	ubfx	r9, r3, #3, #10
	.loc 9 81 0
	and	ip, r3, #7
	.loc 9 84 0
	ubfx	r3, r3, #13, #15
	.loc 9 81 0
	add	ip, ip, #4
.LVL69:
	.loc 9 84 0
	add	r0, r3, #1
	.loc 9 87 0
	mov	lr, #0
	.loc 9 82 0
	add	r10, r9, #1
.LVL70:
.LBB4158:
.LBB4159:
	.file 10 "/home/neelesh/research/seL4-tutorials-manifest/kernel/include/util.h"
	.loc 10 87 0
	clz	r9, r9
.LVL71:
.L102:
	orr	r1, r4, lr, asl r9
.LBE4159:
.LBE4158:
.LBE4155:
	.loc 9 78 0
	mov	r3, #0
.LVL72:
.L103:
.LBB4163:
.LBB4160:
	.loc 9 92 0 discriminator 3
	orr	r2, r1, r3, asl ip
.LVL73:
.LBB4161:
.LBB4162:
	.loc 9 21 0 discriminator 3
@ 21 "/home/neelesh/research/seL4-tutorials-manifest/kernel/src/arch/arm/armv/armv7-a/cache.c" 1
	mcr p15, 0, r2, c7, c10, 2
@ 0 "" 2
.LBE4162:
.LBE4161:
	.loc 9 90 0 discriminator 3
	add	r3, r3, #1
.LVL74:
	cmp	r0, r3
	bgt	.L103
.LBE4160:
	.loc 9 87 0 discriminator 2
	add	lr, lr, #1
.LVL75:
	cmp	r10, lr
	bgt	.L102
.LVL76:
.L101:
	add	r5, r5, #3
.LBE4163:
	.loc 9 78 0
	add	r6, r6, #1
.LVL77:
	cmp	r5, r7
	bne	.L104
	ldmfd	sp!, {r4, r5, r6, r7, r8, r9, r10, pc}
	.cfi_endproc
.LFE293:
	.size	clean_D_PoU, .-clean_D_PoU
	.align	2
	.global	cleanInvalidate_D_PoC
	.type	cleanInvalidate_D_PoC, %function
cleanInvalidate_D_PoC:
.LFB294:
	.loc 9 101 0
	.cfi_startproc
	@ args = 0, pretend = 0, frame = 0
	@ frame_needed = 0, uses_anonymous_args = 0
	stmfd	sp!, {r4, r5, r6, r7, r8, r9, r10, lr}
	.cfi_def_cfa_offset 32
	.cfi_offset 4, -32
	.cfi_offset 5, -28
	.cfi_offset 6, -24
	.cfi_offset 7, -20
	.cfi_offset 8, -16
	.cfi_offset 9, -12
	.cfi_offset 10, -8
	.cfi_offset 14, -4
.LBB4164:
.LBB4165:
	.loc 9 32 0
@ 32 "/home/neelesh/research/seL4-tutorials-manifest/kernel/src/arch/arm/armv/armv7-a/cache.c" 1
	mrc p15, 1, r8, c0, c0, 1
@ 0 "" 2
.LVL78:
.LBE4165:
.LBE4164:
	.loc 9 103 0
	ubfx	r7, r8, #24, #3
.LVL79:
	.loc 9 106 0
	cmp	r7, #0
	ldmeqfd	sp!, {r4, r5, r6, r7, r8, r9, r10, pc}
	mov	r5, #0
	add	r7, r7, r7, asl #1
.LVL80:
	mov	r6, r5
.LVL81:
.L114:
	.loc 9 107 0
	mov	r3, r8, asr r5
	and	r3, r3, #7
	cmp	r3, #1
	bls	.L111
.LVL82:
.LBB4166:
.LBB4167:
.LBB4168:
	.loc 9 53 0
@ 53 "/home/neelesh/research/seL4-tutorials-manifest/kernel/src/arch/arm/armv/armv7-a/cache.c" 1
	mrc p15, 2, r2, c0, c0, 0
@ 0 "" 2
	.loc 9 55 0
	mov	r4, r6, asl #1
@ 55 "/home/neelesh/research/seL4-tutorials-manifest/kernel/src/arch/arm/armv/armv7-a/cache.c" 1
	mcr p15, 2, r4, c0, c0, 0
@ 0 "" 2
	.loc 9 57 0
@ 57 "/home/neelesh/research/seL4-tutorials-manifest/kernel/src/arch/arm/armv/armv7-a/cache.c" 1
	mrc p15, 1, r3, c0, c0, 0
@ 0 "" 2
	.loc 9 59 0
@ 59 "/home/neelesh/research/seL4-tutorials-manifest/kernel/src/arch/arm/armv/armv7-a/cache.c" 1
	mcr p15, 2, r2, c0, c0, 0
@ 0 "" 2
.LBE4168:
.LBE4167:
	.loc 9 110 0
	ubfx	r9, r3, #3, #10
	.loc 9 109 0
	and	ip, r3, #7
	.loc 9 112 0
	ubfx	r3, r3, #13, #15
	.loc 9 109 0
	add	ip, ip, #4
.LVL83:
	.loc 9 112 0
	add	r0, r3, #1
	.loc 9 115 0
	mov	lr, #0
	.loc 9 110 0
	add	r10, r9, #1
.LVL84:
.LBB4169:
.LBB4170:
	.loc 10 87 0
	clz	r9, r9
.LVL85:
.L112:
	orr	r1, r4, lr, asl r9
.LBE4170:
.LBE4169:
.LBE4166:
	.loc 9 106 0
	mov	r3, #0
.LVL86:
.L113:
.LBB4174:
.LBB4171:
	.loc 9 120 0 discriminator 3
	orr	r2, r1, r3, asl ip
.LVL87:
.LBB4172:
.LBB4173:
	.loc 9 26 0 discriminator 3
@ 26 "/home/neelesh/research/seL4-tutorials-manifest/kernel/src/arch/arm/armv/armv7-a/cache.c" 1
	mcr p15, 0, r2, c7, c14, 2
@ 0 "" 2
.LBE4173:
.LBE4172:
	.loc 9 118 0 discriminator 3
	add	r3, r3, #1
.LVL88:
	cmp	r0, r3
	bgt	.L113
.LBE4171:
	.loc 9 115 0 discriminator 2
	add	lr, lr, #1
.LVL89:
	cmp	r10, lr
	bgt	.L112
.LVL90:
.L111:
	add	r5, r5, #3
.LBE4174:
	.loc 9 106 0
	add	r6, r6, #1
.LVL91:
	cmp	r5, r7
	bne	.L114
	ldmfd	sp!, {r4, r5, r6, r7, r8, r9, r10, pc}
	.cfi_endproc
.LFE294:
	.size	cleanInvalidate_D_PoC, .-cleanInvalidate_D_PoC
	.align	2
	.global	armv_init_user_access
	.type	armv_init_user_access, %function
armv_init_user_access:
.LFB297:
	.file 11 "/home/neelesh/research/seL4-tutorials-manifest/kernel/src/arch/arm/armv/armv7-a/user_access.c"
	.loc 11 53 0
	.cfi_startproc
	@ args = 0, pretend = 0, frame = 0
	@ frame_needed = 0, uses_anonymous_args = 0
	@ link register save eliminated.
	.loc 11 56 0
@ 56 "/home/neelesh/research/seL4-tutorials-manifest/kernel/src/arch/arm/armv/armv7-a/user_access.c" 1
	mrc   p15, 0,  r3,  c0,  c1, 2
@ 0 "" 2
.LVL92:
	.loc 11 61 0
@ 61 "/home/neelesh/research/seL4-tutorials-manifest/kernel/src/arch/arm/armv/armv7-a/user_access.c" 1
	mrc   p15, 0,  r3,  c0,  c1, 1
@ 0 "" 2
.LVL93:
	.loc 11 62 0
	tst	r3, #65536
	bxeq	lr
.LBB4175:
.LBB4176:
	.loc 11 41 0
@ 41 "/home/neelesh/research/seL4-tutorials-manifest/kernel/src/arch/arm/armv/armv7-a/user_access.c" 1
	mrc   p15, 0,  r3, c14,  c1, 0
@ 0 "" 2
.LVL94:
.LBB4177:
	.loc 11 48 0
@ 48 "/home/neelesh/research/seL4-tutorials-manifest/kernel/src/arch/arm/armv/armv7-a/user_access.c" 1
	mcr   p15, 0,  r3, c14,  c1, 0
@ 0 "" 2
	bx	lr
.LBE4177:
.LBE4176:
.LBE4175:
	.cfi_endproc
.LFE297:
	.size	armv_init_user_access, .-armv_init_user_access
	.section	.boot.text
	.align	2
	.global	Arch_configureIdleThread
	.type	Arch_configureIdleThread, %function
Arch_configureIdleThread:
.LFB313:
	.file 12 "/home/neelesh/research/seL4-tutorials-manifest/kernel/src/arch/arm/kernel/thread.c"
	.loc 12 28 0
	.cfi_startproc
	@ args = 0, pretend = 0, frame = 0
	@ frame_needed = 0, uses_anonymous_args = 0
	@ link register save eliminated.
.LVL95:
.LBB4178:
.LBB4179:
	.file 13 "/home/neelesh/research/seL4-tutorials-manifest/kernel/include/machine/registerset.h"
	.loc 13 21 0
	movw	r3, #:lower16:idle_thread
.LVL96:
.LBE4179:
.LBE4178:
.LBB4182:
.LBB4183:
	mov	r2, #83
.LBE4183:
.LBE4182:
.LBB4185:
.LBB4180:
	movt	r3, #:upper16:idle_thread
.LBE4180:
.LBE4185:
.LBB4186:
.LBB4184:
	str	r2, [r0, #64]
.LVL97:
.LBE4184:
.LBE4186:
.LBB4187:
.LBB4181:
	str	r3, [r0, #60]
	bx	lr
.LBE4181:
.LBE4187:
	.cfi_endproc
.LFE313:
	.size	Arch_configureIdleThread, .-Arch_configureIdleThread
	.text
	.align	2
	.global	Arch_switchToIdleThread
	.type	Arch_switchToIdleThread, %function
Arch_switchToIdleThread:
.LFB314:
	.loc 12 35 0
	.cfi_startproc
	@ args = 0, pretend = 0, frame = 0
	@ frame_needed = 0, uses_anonymous_args = 0
	@ link register save eliminated.
	.loc 12 36 0
	movw	r3, #:lower16:.LANCHOR2
	mov	r2, #0
	movt	r3, #:upper16:.LANCHOR2
	str	r2, [r3, #16]
	bx	lr
	.cfi_endproc
.LFE314:
	.size	Arch_switchToIdleThread, .-Arch_switchToIdleThread
	.align	2
	.global	Arch_activateIdleThread
	.type	Arch_activateIdleThread, %function
Arch_activateIdleThread:
.LFB315:
	.loc 12 41 0
	.cfi_startproc
	@ args = 0, pretend = 0, frame = 0
	@ frame_needed = 0, uses_anonymous_args = 0
	@ link register save eliminated.
.LVL98:
	bx	lr
	.cfi_endproc
.LFE315:
	.size	Arch_activateIdleThread, .-Arch_activateIdleThread
	.section	.boot.text
	.align	2
	.global	activate_global_pd
	.type	activate_global_pd, %function
activate_global_pd:
.LFB324:
	.file 14 "/home/neelesh/research/seL4-tutorials-manifest/kernel/src/arch/arm/kernel/vspace.c"
	.loc 14 304 0
	.cfi_startproc
	@ args = 0, pretend = 0, frame = 0
	@ frame_needed = 0, uses_anonymous_args = 0
	.loc 14 304 0
	stmfd	sp!, {r3, lr}
	.cfi_def_cfa_offset 8
	.cfi_offset 3, -8
	.cfi_offset 14, -4
.LBB4188:
.LBB4189:
.LBB4190:
.LBB4191:
	.loc 2 17 0
@ 17 "/home/neelesh/research/seL4-tutorials-manifest/kernel/include/arch/arm/armv/armv7-a/armv/machine.h" 1
	dsb
@ 0 "" 2
.LBE4191:
.LBE4190:
	.file 15 "/home/neelesh/research/seL4-tutorials-manifest/kernel/src/arch/arm/machine/cache.c"
	.loc 15 182 0
	bl	cleanInvalidate_D_PoC
.LVL99:
.LBB4192:
.LBB4193:
	.loc 2 17 0
@ 17 "/home/neelesh/research/seL4-tutorials-manifest/kernel/include/arch/arm/armv/armv7-a/armv/machine.h" 1
	dsb
@ 0 "" 2
.LBE4193:
.LBE4192:
.LBB4194:
.LBB4195:
	.loc 4 253 0
	mov	r2, #0
@ 253 "/home/neelesh/research/seL4-tutorials-manifest/kernel/include/arch/arm/arch/machine.h" 1
	mcr p15, 0, r2, c7, c5, 0
@ 0 "" 2
.LBB4196:
.LBB4197:
	.loc 2 29 0
@ 29 "/home/neelesh/research/seL4-tutorials-manifest/kernel/include/arch/arm/armv/armv7-a/armv/machine.h" 1
	isb
@ 0 "" 2
.LBE4197:
.LBE4196:
.LBE4195:
.LBE4194:
.LBB4198:
.LBB4199:
	.loc 2 17 0
@ 17 "/home/neelesh/research/seL4-tutorials-manifest/kernel/include/arch/arm/armv/armv7-a/armv/machine.h" 1
	dsb
@ 0 "" 2
.LVL100:
.LBE4199:
.LBE4198:
.LBE4189:
.LBE4188:
.LBB4200:
.LBB4201:
.LBB4202:
@ 17 "/home/neelesh/research/seL4-tutorials-manifest/kernel/include/arch/arm/armv/armv7-a/armv/machine.h" 1
	dsb
@ 0 "" 2
.LVL101:
.LBE4202:
.LBE4201:
.LBE4200:
.LBB4207:
.LBB4208:
	.loc 3 51 0
	ldr	r3, .L129
.LBE4208:
.LBE4207:
.LBB4209:
.LBB4203:
.LBB4204:
	.loc 4 136 0
	bic	r3, r3, #8128
	bic	r3, r3, #63
	orr	r3, r3, #24
	.loc 4 135 0
@ 135 "/home/neelesh/research/seL4-tutorials-manifest/kernel/include/arch/arm/arch/machine.h" 1
	mcr p15, 0, r3, c2, c0, 0
@ 0 "" 2
.LBE4204:
.LBE4203:
.LBB4205:
.LBB4206:
	.loc 2 29 0
@ 29 "/home/neelesh/research/seL4-tutorials-manifest/kernel/include/arch/arm/armv/armv7-a/armv/machine.h" 1
	isb
@ 0 "" 2
.LBE4206:
.LBE4205:
.LBE4209:
.LBB4210:
.LBB4211:
.LBB4212:
.LBB4213:
	.loc 2 17 0
@ 17 "/home/neelesh/research/seL4-tutorials-manifest/kernel/include/arch/arm/armv/armv7-a/armv/machine.h" 1
	dsb
@ 0 "" 2
.LBE4213:
.LBE4212:
	.loc 4 156 0
@ 156 "/home/neelesh/research/seL4-tutorials-manifest/kernel/include/arch/arm/arch/machine.h" 1
	mcr p15, 0, r2, c8, c7, 0
@ 0 "" 2
.LBB4214:
.LBB4215:
	.loc 2 17 0
@ 17 "/home/neelesh/research/seL4-tutorials-manifest/kernel/include/arch/arm/armv/armv7-a/armv/machine.h" 1
	dsb
@ 0 "" 2
.LBE4215:
.LBE4214:
.LBB4216:
.LBB4217:
	.loc 2 29 0
@ 29 "/home/neelesh/research/seL4-tutorials-manifest/kernel/include/arch/arm/armv/armv7-a/armv/machine.h" 1
	isb
@ 0 "" 2
.LBE4217:
.LBE4216:
.LBE4211:
.LBE4210:
	.loc 14 311 0
	mov	r0, #-536870912
	bl	lockTLBEntry
.LVL102:
	.loc 14 312 0
	mov	r0, #0
	.loc 14 313 0
	ldmfd	sp!, {r3, lr}
	.cfi_restore 14
	.cfi_restore 3
	.cfi_def_cfa_offset 0
	.loc 14 312 0
	movt	r0, 65535
	b	lockTLBEntry
.LVL103:
.L130:
	.align	2
.L129:
	.word	.LANCHOR0+536870912
	.cfi_endproc
.LFE324:
	.size	activate_global_pd, .-activate_global_pd
	.text
	.align	2
	.global	copyGlobalMappings
	.type	copyGlobalMappings, %function
copyGlobalMappings:
.LFB326:
	.loc 14 327 0
	.cfi_startproc
	@ args = 0, pretend = 0, frame = 0
	@ frame_needed = 0, uses_anonymous_args = 0
	@ link register save eliminated.
.LVL104:
	movw	ip, #:lower16:.LANCHOR0
	.loc 14 327 0
	movw	r2, #3585
	movt	ip, #:upper16:.LANCHOR0
	mov	r3, #3584
	b	.L132
.LVL105:
.L133:
	add	r3, r3, #1
	add	r2, r2, #1
.L132:
.LVL106:
	.loc 14 332 0
	cmp	r3, #4080
	beq	.L133
	.loc 14 333 0
	ldr	r1, [ip, r3, asl #2]
	.loc 14 331 0
	cmp	r2, #4096
	.loc 14 333 0
	str	r1, [r0, r3, asl #2]
.LVL107:
	.loc 14 331 0
	bne	.L133
	.loc 14 336 0
	bx	lr
	.cfi_endproc
.LFE326:
	.size	copyGlobalMappings, .-copyGlobalMappings
	.align	2
	.global	findPDForASID
	.type	findPDForASID, %function
findPDForASID:
.LFB328:
	.loc 14 369 0
	.cfi_startproc
	@ args = 0, pretend = 0, frame = 0
	@ frame_needed = 0, uses_anonymous_args = 0
	@ link register save eliminated.
.LVL108:
	.loc 14 374 0
	movw	r3, #:lower16:armKSASIDTable
	mov	r2, r1, lsr #10
	movt	r3, #:upper16:armKSASIDTable
	ldr	r3, [r3, r2, asl #2]
.LVL109:
	.loc 14 375 0
	cmp	r3, #0
	beq	.L140
	.loc 14 383 0
	ubfx	r1, r1, #0, #10
.LVL110:
	ldr	r3, [r3, r1, asl #2]
.LVL111:
	.loc 14 384 0
	cmp	r3, #0
	beq	.L140
.LVL112:
	.loc 14 394 0
	mov	r2, #0
.LVL113:
	stmia	r0, {r2, r3}
	.loc 14 395 0
	bx	lr
.LVL114:
.L140:
	.loc 14 376 0
	movw	r3, #:lower16:current_lookup_fault
	mov	r2, #0
.LVL115:
	movt	r3, #:upper16:current_lookup_fault
	.loc 14 380 0
	mov	r1, #2
	.loc 14 376 0
	str	r2, [r3]
	str	r2, [r3, #4]
.LVL116:
	.loc 14 380 0
	stmia	r0, {r1, r2}
	bx	lr
	.cfi_endproc
.LFE328:
	.size	findPDForASID, .-findPDForASID
	.align	2
	.global	lookupPDSlot
	.type	lookupPDSlot, %function
lookupPDSlot:
.LFB331:
	.loc 14 436 0
	.cfi_startproc
	@ args = 0, pretend = 0, frame = 0
	@ frame_needed = 0, uses_anonymous_args = 0
	@ link register save eliminated.
.LVL117:
	.loc 14 439 0
	mov	r1, r1, lsr #20
.LVL118:
	.loc 14 441 0
	add	r0, r0, r1, asl #2
.LVL119:
	bx	lr
	.cfi_endproc
.LFE331:
	.size	lookupPDSlot, .-lookupPDSlot
	.align	2
	.global	maskVMRights
	.type	maskVMRights, %function
maskVMRights:
.LFB345:
	.loc 14 775 0
	.cfi_startproc
	@ args = 0, pretend = 0, frame = 0
	@ frame_needed = 0, uses_anonymous_args = 0
	@ link register save eliminated.
.LVL120:
	.loc 14 776 0
	cmp	r0, #0
	bxeq	lr
	.loc 14 779 0
	cmp	r0, #2
	beq	.L153
	.loc 14 783 0
	cmp	r0, #3
	beq	.L154
.L151:
	.loc 14 791 0
	mov	r0, #1
.LVL121:
	.loc 14 792 0
	bx	lr
.LVL122:
.L153:
	.loc 14 779 0 discriminator 1
	tst	r1, #2
	.loc 14 791 0 discriminator 1
	movne	r0, #2
.LVL123:
	moveq	r0, #1
	bx	lr
.LVL124:
.L154:
	.loc 14 783 0 discriminator 1
	tst	r1, #2
	beq	.L151
.LVL125:
	.loc 14 785 0
	tst	r1, #1
	.loc 14 788 0
	moveq	r0, #2
.LVL126:
	movne	r0, #3
	bx	lr
	.cfi_endproc
.LFE345:
	.size	maskVMRights, .-maskVMRights
	.align	2
	.global	performPageTableInvocationMap
	.type	performPageTableInvocationMap, %function
performPageTableInvocationMap:
.LFB365:
	.loc 14 2012 0
	.cfi_startproc
	@ args = 4, pretend = 0, frame = 8
	@ frame_needed = 0, uses_anonymous_args = 0
.LVL127:
	str	lr, [sp, #-4]!
	.cfi_def_cfa_offset 4
	.cfi_offset 14, -4
	sub	sp, sp, #12
	.cfi_def_cfa_offset 16
	.loc 14 2012 0
	ldr	lr, [sp, #16]
	stmia	sp, {r0, r1}
	.loc 14 2013 0
	ldmia	sp, {r0, r1}
	stmia	r2, {r0, r1}
	.loc 14 2014 0
	str	r3, [lr]
.LVL128:
.LBB4224:
.LBB4225:
	.loc 4 212 0
@ 212 "/home/neelesh/research/seL4-tutorials-manifest/kernel/include/arch/arm/arch/machine.h" 1
	mcr p15, 0, lr, c7, c11, 1
@ 0 "" 2
.LBB4226:
.LBB4227:
	.loc 2 23 0
@ 23 "/home/neelesh/research/seL4-tutorials-manifest/kernel/include/arch/arm/armv/armv7-a/armv/machine.h" 1
	dmb
@ 0 "" 2
.LBE4227:
.LBE4226:
.LBE4225:
.LBE4224:
	.loc 14 2018 0
	mov	r0, #0
	add	sp, sp, #12
	.cfi_def_cfa_offset 4
	@ sp needed
	ldr	pc, [sp], #4
	.cfi_endproc
.LFE365:
	.size	performPageTableInvocationMap, .-performPageTableInvocationMap
	.align	2
	.global	cleanCacheRange_PoU
	.type	cleanCacheRange_PoU, %function
cleanCacheRange_PoU:
.LFB385:
	.loc 15 86 0
	.cfi_startproc
	@ args = 0, pretend = 0, frame = 0
	@ frame_needed = 0, uses_anonymous_args = 0
	@ link register save eliminated.
.LVL129:
	.loc 15 95 0
	mov	r1, r1, lsr #5
.LVL130:
	mov	r0, r0, lsr #5
.LVL131:
	add	r1, r1, #1
	cmp	r0, r1
	bxcs	lr
.L160:
.LVL132:
	.loc 15 96 0 discriminator 3
	mov	r3, r0, asl #5
.LVL133:
.LBB4228:
.LBB4229:
	.loc 4 212 0 discriminator 3
@ 212 "/home/neelesh/research/seL4-tutorials-manifest/kernel/include/arch/arm/arch/machine.h" 1
	mcr p15, 0, r3, c7, c11, 1
@ 0 "" 2
.LBB4230:
.LBB4231:
	.loc 2 23 0 discriminator 3
@ 23 "/home/neelesh/research/seL4-tutorials-manifest/kernel/include/arch/arm/armv/armv7-a/armv/machine.h" 1
	dmb
@ 0 "" 2
.LBE4231:
.LBE4230:
.LBE4229:
.LBE4228:
	.loc 15 95 0 discriminator 3
	add	r0, r0, #1
.LVL134:
	cmp	r0, r1
	bne	.L160
	bx	lr
	.cfi_endproc
.LFE385:
	.size	cleanCacheRange_PoU, .-cleanCacheRange_PoU
	.align	2
	.global	invalidateCacheRange_I
	.type	invalidateCacheRange_I, %function
invalidateCacheRange_I:
.LFB387:
	.loc 15 146 0
	.cfi_startproc
	@ args = 0, pretend = 0, frame = 0
	@ frame_needed = 0, uses_anonymous_args = 0
	@ link register save eliminated.
.LVL135:
	.loc 15 150 0
	mov	r1, r1, lsr #5
.LVL136:
	mov	r0, r0, lsr #5
.LVL137:
	add	r1, r1, #1
	cmp	r0, r1
	bxcs	lr
.L165:
.LVL138:
	.loc 15 151 0 discriminator 3
	mov	r3, r0, asl #5
.LVL139:
.LBB4232:
.LBB4233:
	.loc 4 240 0 discriminator 3
@ 240 "/home/neelesh/research/seL4-tutorials-manifest/kernel/include/arch/arm/arch/machine.h" 1
	mcr p15, 0, r3, c7, c5, 1
@ 0 "" 2
.LBB4234:
.LBB4235:
	.loc 2 29 0 discriminator 3
@ 29 "/home/neelesh/research/seL4-tutorials-manifest/kernel/include/arch/arm/armv/armv7-a/armv/machine.h" 1
	isb
@ 0 "" 2
.LBE4235:
.LBE4234:
.LBE4233:
.LBE4232:
	.loc 15 150 0 discriminator 3
	add	r0, r0, #1
.LVL140:
	cmp	r0, r1
	bne	.L165
	bx	lr
	.cfi_endproc
.LFE387:
	.size	invalidateCacheRange_I, .-invalidateCacheRange_I
	.align	2
	.global	branchFlushRange
	.type	branchFlushRange, %function
branchFlushRange:
.LFB388:
	.loc 15 158 0
	.cfi_startproc
	@ args = 0, pretend = 0, frame = 0
	@ frame_needed = 0, uses_anonymous_args = 0
	@ link register save eliminated.
.LVL141:
	.loc 15 162 0
	mov	r1, r1, lsr #5
.LVL142:
	mov	r0, r0, lsr #5
.LVL143:
	add	r1, r1, #1
	cmp	r0, r1
	bxcs	lr
.L170:
.LVL144:
	.loc 15 163 0 discriminator 3
	mov	r3, r0, asl #5
.LVL145:
.LBB4236:
.LBB4237:
	.loc 4 277 0 discriminator 3
@ 277 "/home/neelesh/research/seL4-tutorials-manifest/kernel/include/arch/arm/arch/machine.h" 1
	mcr p15, 0, r3, c7, c5, 7
@ 0 "" 2
.LBE4237:
.LBE4236:
	.loc 15 162 0 discriminator 3
	add	r0, r0, #1
.LVL146:
	cmp	r0, r1
	bne	.L170
	bx	lr
	.cfi_endproc
.LFE388:
	.size	branchFlushRange, .-branchFlushRange
	.align	2
	.global	cleanCaches_PoU
	.type	cleanCaches_PoU, %function
cleanCaches_PoU:
.LFB389:
	.loc 15 170 0
	.cfi_startproc
	@ args = 0, pretend = 0, frame = 0
	@ frame_needed = 0, uses_anonymous_args = 0
	stmfd	sp!, {r3, lr}
	.cfi_def_cfa_offset 8
	.cfi_offset 3, -8
	.cfi_offset 14, -4
.LBB4238:
.LBB4239:
	.loc 2 17 0
@ 17 "/home/neelesh/research/seL4-tutorials-manifest/kernel/include/arch/arm/armv/armv7-a/armv/machine.h" 1
	dsb
@ 0 "" 2
.LBE4239:
.LBE4238:
	.loc 15 172 0
	bl	clean_D_PoU
.LVL147:
.LBB4240:
.LBB4241:
	.loc 2 17 0
@ 17 "/home/neelesh/research/seL4-tutorials-manifest/kernel/include/arch/arm/armv/armv7-a/armv/machine.h" 1
	dsb
@ 0 "" 2
.LBE4241:
.LBE4240:
.LBB4242:
.LBB4243:
	.loc 4 253 0
	mov	r3, #0
@ 253 "/home/neelesh/research/seL4-tutorials-manifest/kernel/include/arch/arm/arch/machine.h" 1
	mcr p15, 0, r3, c7, c5, 0
@ 0 "" 2
.LBB4244:
.LBB4245:
	.loc 2 29 0
@ 29 "/home/neelesh/research/seL4-tutorials-manifest/kernel/include/arch/arm/armv/armv7-a/armv/machine.h" 1
	isb
@ 0 "" 2
.LBE4245:
.LBE4244:
.LBE4243:
.LBE4242:
.LBB4246:
.LBB4247:
	.loc 2 17 0
@ 17 "/home/neelesh/research/seL4-tutorials-manifest/kernel/include/arch/arm/armv/armv7-a/armv/machine.h" 1
	dsb
@ 0 "" 2
	ldmfd	sp!, {r3, pc}
.LBE4247:
.LBE4246:
	.cfi_endproc
.LFE389:
	.size	cleanCaches_PoU, .-cleanCaches_PoU
	.align	2
	.global	cleanInvalidateL1Caches
	.type	cleanInvalidateL1Caches, %function
cleanInvalidateL1Caches:
.LFB390:
	.loc 15 180 0
	.cfi_startproc
	@ args = 0, pretend = 0, frame = 0
	@ frame_needed = 0, uses_anonymous_args = 0
	stmfd	sp!, {r3, lr}
	.cfi_def_cfa_offset 8
	.cfi_offset 3, -8
	.cfi_offset 14, -4
.LBB4248:
.LBB4249:
	.loc 2 17 0
@ 17 "/home/neelesh/research/seL4-tutorials-manifest/kernel/include/arch/arm/armv/armv7-a/armv/machine.h" 1
	dsb
@ 0 "" 2
.LBE4249:
.LBE4248:
	.loc 15 182 0
	bl	cleanInvalidate_D_PoC
.LVL148:
.LBB4250:
.LBB4251:
	.loc 2 17 0
@ 17 "/home/neelesh/research/seL4-tutorials-manifest/kernel/include/arch/arm/armv/armv7-a/armv/machine.h" 1
	dsb
@ 0 "" 2
.LBE4251:
.LBE4250:
.LBB4252:
.LBB4253:
	.loc 4 253 0
	mov	r3, #0
@ 253 "/home/neelesh/research/seL4-tutorials-manifest/kernel/include/arch/arm/arch/machine.h" 1
	mcr p15, 0, r3, c7, c5, 0
@ 0 "" 2
.LBB4254:
.LBB4255:
	.loc 2 29 0
@ 29 "/home/neelesh/research/seL4-tutorials-manifest/kernel/include/arch/arm/armv/armv7-a/armv/machine.h" 1
	isb
@ 0 "" 2
.LBE4255:
.LBE4254:
.LBE4253:
.LBE4252:
.LBB4256:
.LBB4257:
	.loc 2 17 0
@ 17 "/home/neelesh/research/seL4-tutorials-manifest/kernel/include/arch/arm/armv/armv7-a/armv/machine.h" 1
	dsb
@ 0 "" 2
	ldmfd	sp!, {r3, pc}
.LBE4257:
.LBE4256:
	.cfi_endproc
.LFE390:
	.size	cleanInvalidateL1Caches, .-cleanInvalidateL1Caches
	.align	2
	.global	set_breakpoint
	.type	set_breakpoint, %function
set_breakpoint:
.LFB417:
	.file 16 "/home/neelesh/research/seL4-tutorials-manifest/kernel/src/arch/arm/machine/debug.c"
	.loc 16 98 0
	.cfi_startproc
	@ args = 0, pretend = 0, frame = 0
	@ frame_needed = 0, uses_anonymous_args = 0
.LVL149:
	.loc 16 101 0
	movw	r3, #:lower16:n_breakpoints
	.loc 16 98 0
	stmfd	sp!, {r4, lr}
	.cfi_def_cfa_offset 8
	.cfi_offset 4, -8
	.cfi_offset 14, -4
	.loc 16 101 0
	movt	r3, #:upper16:n_breakpoints
	ldr	lr, [r3]
	cmp	lr, #0
	beq	.L197
	movw	r4, #:lower16:breakpoints
	movt	r4, #:upper16:breakpoints
	ldr	r3, [r4, #4]
	cmp	r3, #0
	beq	.L178
	mov	r2, r4
	mov	r3, #0
	b	.L179
.LVL150:
.L205:
	.loc 16 101 0 is_stmt 0 discriminator 3
	ldr	ip, [r2, #4]
	cmp	ip, #0
	beq	.L204
.LVL151:
.L179:
	.loc 16 101 0 discriminator 4
	add	r3, r3, #1
.LVL152:
	add	r2, r2, #8
	cmp	r3, lr
	bne	.L205
.LVL153:
.L197:
	.loc 16 104 0 is_stmt 1
	mvn	r2, #0
.L198:
	.loc 16 119 0
	mov	r0, r2
.LVL154:
	ldmfd	sp!, {r4, pc}
.LVL155:
.L204:
	.loc 16 108 0
	add	ip, r4, r3, asl #3
	.loc 16 107 0
	str	r0, [r4, r3, asl #3]
	mov	r2, r3
	.loc 16 108 0
	str	r1, [ip, #4]
.LVL156:
.LBB4262:
.LBB4263:
	.file 17 "/home/neelesh/research/seL4-tutorials-manifest/kernel/include/arch/arm/arch/machine/debug.h"
	.loc 17 170 0
	cmp	r3, #5
	ldrls	pc, [pc, r3, asl #2]
	b	.L193
.L195:
	.word	.L181
	.word	.L183
	.word	.L185
	.word	.L187
	.word	.L189
	.word	.L191
.LVL157:
.L191:
	.loc 17 187 0
@ 187 "/home/neelesh/research/seL4-tutorials-manifest/kernel/include/arch/arm/arch/machine/debug.h" 1
	mcr p14, 0, r0, c0, c5, 4
@ 0 "" 2
.LVL158:
.L192:
.LBE4263:
.LBE4262:
.LBB4269:
.LBB4270:
	.loc 17 255 0
	movw	r3, #487
@ 255 "/home/neelesh/research/seL4-tutorials-manifest/kernel/include/arch/arm/arch/machine/debug.h" 1
	mcr p14, 0, r3, c0, c5, 5
@ 0 "" 2
	mov	r2, #5
.LVL159:
.LBE4270:
.LBE4269:
	.loc 16 119 0
	mov	r0, r2
.LVL160:
	ldmfd	sp!, {r4, pc}
.LVL161:
.L189:
.LBB4277:
.LBB4264:
	.loc 17 184 0
@ 184 "/home/neelesh/research/seL4-tutorials-manifest/kernel/include/arch/arm/arch/machine/debug.h" 1
	mcr p14, 0, r0, c0, c4, 4
@ 0 "" 2
.LVL162:
.L190:
.LBE4264:
.LBE4277:
.LBB4278:
.LBB4271:
	.loc 17 252 0
	movw	r3, #487
@ 252 "/home/neelesh/research/seL4-tutorials-manifest/kernel/include/arch/arm/arch/machine/debug.h" 1
	mcr p14, 0, r3, c0, c4, 5
@ 0 "" 2
	mov	r2, #4
.LVL163:
.LBE4271:
.LBE4278:
	.loc 16 119 0
	mov	r0, r2
.LVL164:
	ldmfd	sp!, {r4, pc}
.LVL165:
.L187:
.LBB4279:
.LBB4265:
	.loc 17 181 0
@ 181 "/home/neelesh/research/seL4-tutorials-manifest/kernel/include/arch/arm/arch/machine/debug.h" 1
	mcr p14, 0, r0, c0, c3, 4
@ 0 "" 2
.LVL166:
.L188:
.LBE4265:
.LBE4279:
.LBB4280:
.LBB4272:
	.loc 17 249 0
	movw	r3, #487
@ 249 "/home/neelesh/research/seL4-tutorials-manifest/kernel/include/arch/arm/arch/machine/debug.h" 1
	mcr p14, 0, r3, c0, c3, 5
@ 0 "" 2
	mov	r2, #3
.LVL167:
.LBE4272:
.LBE4280:
	.loc 16 119 0
	mov	r0, r2
.LVL168:
	ldmfd	sp!, {r4, pc}
.LVL169:
.L185:
.LBB4281:
.LBB4266:
	.loc 17 178 0
@ 178 "/home/neelesh/research/seL4-tutorials-manifest/kernel/include/arch/arm/arch/machine/debug.h" 1
	mcr p14, 0, r0, c0, c2, 4
@ 0 "" 2
.LVL170:
.L186:
.LBE4266:
.LBE4281:
.LBB4282:
.LBB4273:
	.loc 17 246 0
	movw	r3, #487
@ 246 "/home/neelesh/research/seL4-tutorials-manifest/kernel/include/arch/arm/arch/machine/debug.h" 1
	mcr p14, 0, r3, c0, c2, 5
@ 0 "" 2
	mov	r2, #2
.LVL171:
.LBE4273:
.LBE4282:
	.loc 16 119 0
	mov	r0, r2
.LVL172:
	ldmfd	sp!, {r4, pc}
.LVL173:
.L183:
.LBB4283:
.LBB4267:
	.loc 17 175 0
@ 175 "/home/neelesh/research/seL4-tutorials-manifest/kernel/include/arch/arm/arch/machine/debug.h" 1
	mcr p14, 0, r0, c0, c1, 4
@ 0 "" 2
.LVL174:
.L184:
.LBE4267:
.LBE4283:
.LBB4284:
.LBB4274:
	.loc 17 243 0
	movw	r3, #487
@ 243 "/home/neelesh/research/seL4-tutorials-manifest/kernel/include/arch/arm/arch/machine/debug.h" 1
	mcr p14, 0, r3, c0, c1, 5
@ 0 "" 2
	mov	r2, #1
.LVL175:
.LBE4274:
.LBE4284:
	.loc 16 119 0
	mov	r0, r2
.LVL176:
	ldmfd	sp!, {r4, pc}
.LVL177:
.L178:
	.loc 16 108 0
	stmia	r4, {r0, r1}
.LVL178:
.L181:
.LBB4285:
.LBB4268:
	.loc 17 172 0
@ 172 "/home/neelesh/research/seL4-tutorials-manifest/kernel/include/arch/arm/arch/machine/debug.h" 1
	mcr p14, 0, r0, c0, c0, 4
@ 0 "" 2
.LVL179:
.L182:
.LBE4268:
.LBE4285:
.LBB4286:
.LBB4275:
	.loc 17 240 0
	movw	r3, #487
@ 240 "/home/neelesh/research/seL4-tutorials-manifest/kernel/include/arch/arm/arch/machine/debug.h" 1
	mcr p14, 0, r3, c0, c0, 5
@ 0 "" 2
	mov	r2, #0
.LBE4275:
.LBE4286:
	.loc 16 119 0
	mov	r0, r2
.LVL180:
	ldmfd	sp!, {r4, pc}
.LVL181:
.L193:
.LBB4287:
.LBB4276:
	.loc 17 238 0
	cmp	r3, #5
	ldrls	pc, [pc, r3, asl #2]
	b	.L198
.L194:
	.word	.L182
	.word	.L184
	.word	.L186
	.word	.L188
	.word	.L190
	.word	.L192
.LBE4276:
.LBE4287:
	.cfi_endproc
.LFE417:
	.size	set_breakpoint, .-set_breakpoint
	.align	2
	.global	clear_breakpoint
	.type	clear_breakpoint, %function
clear_breakpoint:
.LFB418:
	.loc 16 123 0
	.cfi_startproc
	@ args = 0, pretend = 0, frame = 0
	@ frame_needed = 0, uses_anonymous_args = 0
.LVL182:
	.loc 16 126 0
	movw	r3, #:lower16:n_breakpoints
	.loc 16 123 0
	stmfd	sp!, {r4, lr}
	.cfi_def_cfa_offset 8
	.cfi_offset 4, -8
	.cfi_offset 14, -4
	.loc 16 126 0
	movt	r3, #:upper16:n_breakpoints
	ldr	lr, [r3]
	cmp	lr, #0
	ldmeqfd	sp!, {r4, pc}
	movw	ip, #:lower16:breakpoints
	mov	r3, #0
	movt	ip, #:upper16:breakpoints
	.loc 16 130 0
	mov	r4, r3
	mov	r2, ip
	b	.L217
.LVL183:
.L208:
	.loc 16 126 0 discriminator 2
	add	r3, r3, #1
.LVL184:
	add	r2, r2, #8
	cmp	r3, lr
	beq	.L224
.LVL185:
.L217:
	.loc 16 127 0
	ldr	r1, [ip, r3, asl #3]
	cmp	r1, r0
	bne	.L208
	.loc 16 127 0 is_stmt 0 discriminator 1
	ldr	r1, [r2, #4]
	cmp	r1, #0
	beq	.L208
.LVL186:
.LBB4290:
.LBB4291:
	.loc 17 238 0 is_stmt 1
	cmp	r3, #5
	ldrls	pc, [pc, r3, asl #2]
	b	.L209
.L211:
	.word	.L210
	.word	.L212
	.word	.L213
	.word	.L214
	.word	.L215
	.word	.L216
.L214:
	.loc 17 249 0
@ 249 "/home/neelesh/research/seL4-tutorials-manifest/kernel/include/arch/arm/arch/machine/debug.h" 1
	mcr p14, 0, r4, c0, c3, 5
@ 0 "" 2
.L209:
.LBE4291:
.LBE4290:
	.loc 16 130 0
	str	r4, [r2, #4]
.L225:
	.loc 16 126 0
	add	r3, r3, #1
.LVL187:
	add	r2, r2, #8
	cmp	r3, lr
	bne	.L217
.LVL188:
.L224:
	ldmfd	sp!, {r4, pc}
.LVL189:
.L216:
.LBB4297:
.LBB4292:
	.loc 17 255 0
@ 255 "/home/neelesh/research/seL4-tutorials-manifest/kernel/include/arch/arm/arch/machine/debug.h" 1
	mcr p14, 0, r4, c0, c5, 5
@ 0 "" 2
.LBE4292:
.LBE4297:
	.loc 16 130 0
	str	r4, [r2, #4]
	b	.L225
.L215:
.LBB4298:
.LBB4293:
	.loc 17 252 0
@ 252 "/home/neelesh/research/seL4-tutorials-manifest/kernel/include/arch/arm/arch/machine/debug.h" 1
	mcr p14, 0, r4, c0, c4, 5
@ 0 "" 2
.LBE4293:
.LBE4298:
	.loc 16 130 0
	str	r4, [r2, #4]
	b	.L225
.L213:
.LBB4299:
.LBB4294:
	.loc 17 246 0
@ 246 "/home/neelesh/research/seL4-tutorials-manifest/kernel/include/arch/arm/arch/machine/debug.h" 1
	mcr p14, 0, r4, c0, c2, 5
@ 0 "" 2
.LBE4294:
.LBE4299:
	.loc 16 130 0
	str	r4, [r2, #4]
	b	.L225
.L212:
.LBB4300:
.LBB4295:
	.loc 17 243 0
@ 243 "/home/neelesh/research/seL4-tutorials-manifest/kernel/include/arch/arm/arch/machine/debug.h" 1
	mcr p14, 0, r4, c0, c1, 5
@ 0 "" 2
.LBE4295:
.LBE4300:
	.loc 16 130 0
	str	r4, [r2, #4]
	b	.L225
.L210:
.LBB4301:
.LBB4296:
	.loc 17 240 0
@ 240 "/home/neelesh/research/seL4-tutorials-manifest/kernel/include/arch/arm/arch/machine/debug.h" 1
	mcr p14, 0, r4, c0, c0, 5
@ 0 "" 2
.LBE4296:
.LBE4301:
	.loc 16 130 0
	str	r4, [r2, #4]
	b	.L225
	.cfi_endproc
.LFE418:
	.size	clear_breakpoint, .-clear_breakpoint
	.align	2
	.global	set_catch_handler
	.type	set_catch_handler, %function
set_catch_handler:
.LFB419:
	.loc 16 139 0
	.cfi_startproc
	@ args = 0, pretend = 0, frame = 0
	@ frame_needed = 0, uses_anonymous_args = 0
	@ link register save eliminated.
.LVL190:
	.loc 16 140 0
	movw	r3, #:lower16:catch_handler
	movt	r3, #:upper16:catch_handler
	str	r0, [r3]
	bx	lr
	.cfi_endproc
.LFE419:
	.size	set_catch_handler, .-set_catch_handler
	.align	2
	.global	catch_vector
	.type	catch_vector, %function
catch_vector:
.LFB420:
	.loc 16 145 0
	.cfi_startproc
	@ args = 0, pretend = 0, frame = 0
	@ frame_needed = 0, uses_anonymous_args = 0
	@ link register save eliminated.
.LVL191:
.LBB4302:
.LBB4303:
	.loc 17 124 0
@ 124 "/home/neelesh/research/seL4-tutorials-manifest/kernel/include/arch/arm/arch/machine/debug.h" 1
	mrc p14, 0, r3, c0, c7, 0
@ 0 "" 2
.LBE4303:
.LBE4302:
	.loc 16 149 0
	mov	r2, #1
	orr	r0, r3, r2, asl r0
.LVL192:
.LBB4304:
.LBB4305:
	.loc 17 132 0
@ 132 "/home/neelesh/research/seL4-tutorials-manifest/kernel/include/arch/arm/arch/machine/debug.h" 1
	mcr p14, 0, r0, c0, c7, 0
@ 0 "" 2
	bx	lr
.LBE4305:
.LBE4304:
	.cfi_endproc
.LFE420:
	.size	catch_vector, .-catch_vector
	.align	2
	.global	uncatch_vector
	.type	uncatch_vector, %function
uncatch_vector:
.LFB421:
	.loc 16 155 0
	.cfi_startproc
	@ args = 0, pretend = 0, frame = 0
	@ frame_needed = 0, uses_anonymous_args = 0
	@ link register save eliminated.
.LVL193:
.LBB4306:
.LBB4307:
	.loc 17 124 0
@ 124 "/home/neelesh/research/seL4-tutorials-manifest/kernel/include/arch/arm/arch/machine/debug.h" 1
	mrc p14, 0, r3, c0, c7, 0
@ 0 "" 2
.LBE4307:
.LBE4306:
	.loc 16 159 0
	mov	r2, #1
	bic	r0, r3, r2, asl r0
.LVL194:
.LBB4308:
.LBB4309:
	.loc 17 132 0
@ 132 "/home/neelesh/research/seL4-tutorials-manifest/kernel/include/arch/arm/arch/machine/debug.h" 1
	mcr p14, 0, r0, c0, c7, 0
@ 0 "" 2
	bx	lr
.LBE4309:
.LBE4308:
	.cfi_endproc
.LFE421:
	.size	uncatch_vector, .-uncatch_vector
	.section	.boot.text
	.align	2
	.global	arm_errata
	.type	arm_errata, %function
arm_errata:
.LFB422:
	.file 18 "/home/neelesh/research/seL4-tutorials-manifest/kernel/src/arch/arm/machine/errata.c"
	.loc 18 72 0
	.cfi_startproc
	@ args = 0, pretend = 0, frame = 0
	@ frame_needed = 0, uses_anonymous_args = 0
	@ link register save eliminated.
	bx	lr
	.cfi_endproc
.LFE422:
	.size	arm_errata, .-arm_errata
	.align	2
	.global	initIRQController
	.type	initIRQController, %function
initIRQController:
.LFB435:
	.loc 7 288 0
	.cfi_startproc
	@ args = 0, pretend = 0, frame = 0
	@ frame_needed = 0, uses_anonymous_args = 0
	.loc 7 288 0
	stmfd	sp!, {r3, lr}
	.cfi_def_cfa_offset 8
	.cfi_offset 3, -8
	.cfi_offset 14, -4
	.loc 7 289 0
	bl	dist_init
.LVL195:
	.loc 7 291 0
	ldmfd	sp!, {r3, lr}
	.cfi_restore 14
	.cfi_restore 3
	.cfi_def_cfa_offset 0
	.loc 7 290 0
	b	cpu_iface_init
.LVL196:
	.cfi_endproc
.LFE435:
	.size	initIRQController, .-initIRQController
	.text
	.align	2
	.global	getActiveIRQ
	.type	getActiveIRQ, %function
getActiveIRQ:
.LFB436:
	.loc 7 309 0
	.cfi_startproc
	@ args = 0, pretend = 0, frame = 0
	@ frame_needed = 0, uses_anonymous_args = 0
	@ link register save eliminated.
	.loc 7 311 0
	movw	r3, #:lower16:.LANCHOR1
	movt	r3, #:upper16:.LANCHOR1
	ldr	r0, [r3, #8]
	ubfx	r0, r0, #0, #10
	cmp	r0, #1020
	bcc	.L233
	.loc 7 312 0
	ldr	r2, [r3, #4]
	ldr	r2, [r2, #12]
	.loc 7 315 0
	ubfx	r0, r2, #0, #10
	.loc 7 312 0
	str	r2, [r3, #8]
	.loc 7 315 0
	cmp	r0, #1020
	bcc	.L233
	movw	r0, #65535
	bx	lr
.L233:
	uxth	r0, r0
	.loc 7 322 0
	bx	lr
	.cfi_endproc
.LFE436:
	.size	getActiveIRQ, .-getActiveIRQ
	.align	2
	.global	isIRQPending
	.type	isIRQPending, %function
isIRQPending:
.LFB437:
	.loc 7 334 0
	.cfi_startproc
	@ args = 0, pretend = 0, frame = 0
	@ frame_needed = 0, uses_anonymous_args = 0
	@ link register save eliminated.
	.loc 7 335 0
	movw	r3, #:lower16:.LANCHOR1
	movt	r3, #:upper16:.LANCHOR1
	ldr	r3, [r3, #4]
	ldr	r0, [r3, #24]
	ubfx	r0, r0, #0, #10
	.loc 7 336 0
	cmp	r0, #1020
	movcs	r0, #0
	movcc	r0, #1
	bx	lr
	.cfi_endproc
.LFE437:
	.size	isIRQPending, .-isIRQPending
	.align	2
	.global	maskInterrupt
	.type	maskInterrupt, %function
maskInterrupt:
.LFB438:
	.loc 7 344 0
	.cfi_startproc
	@ args = 0, pretend = 0, frame = 0
	@ frame_needed = 0, uses_anonymous_args = 0
	@ link register save eliminated.
.LVL197:
	.loc 7 345 0
	cmp	r0, #0
	bne	.L240
.LVL198:
.LBB4312:
.LBB4313:
	.loc 7 207 0
	movw	r2, #:lower16:.LANCHOR1
	.loc 7 205 0
	mov	r3, r1, lsr #5
.LVL199:
	.loc 7 207 0
	movt	r2, #:upper16:.LANCHOR1
	ldr	r0, [r2]
.LVL200:
	.loc 7 206 0
	and	r1, r1, #31
.LVL201:
	.loc 7 207 0
	mov	r2, #1
	add	r3, r3, #64
.LVL202:
	mov	r1, r2, asl r1
	str	r1, [r0, r3, asl #2]
	bx	lr
.LVL203:
.L240:
.LBE4313:
.LBE4312:
	mov	r0, r1
.LVL204:
	b	maskInterrupt.part.50
.LVL205:
	.cfi_endproc
.LFE438:
	.size	maskInterrupt, .-maskInterrupt
	.align	2
	.global	handleSpuriousIRQ
	.type	handleSpuriousIRQ, %function
handleSpuriousIRQ:
.LFB440:
	.loc 7 368 0
	.cfi_startproc
	@ args = 0, pretend = 0, frame = 0
	@ frame_needed = 0, uses_anonymous_args = 0
	@ link register save eliminated.
	bx	lr
	.cfi_endproc
.LFE440:
	.size	handleSpuriousIRQ, .-handleSpuriousIRQ
	.align	2
	.global	getRestartPC
	.type	getRestartPC, %function
getRestartPC:
.LFB441:
	.file 19 "/home/neelesh/research/seL4-tutorials-manifest/kernel/src/arch/arm/machine/hardware.c"
	.loc 19 17 0
	.cfi_startproc
	@ args = 0, pretend = 0, frame = 0
	@ frame_needed = 0, uses_anonymous_args = 0
	@ link register save eliminated.
.LVL206:
	.loc 19 19 0
	ldr	r0, [r0, #68]
.LVL207:
	bx	lr
	.cfi_endproc
.LFE441:
	.size	getRestartPC, .-getRestartPC
	.align	2
	.global	setNextPC
	.type	setNextPC, %function
setNextPC:
.LFB442:
	.loc 19 23 0
	.cfi_startproc
	@ args = 0, pretend = 0, frame = 0
	@ frame_needed = 0, uses_anonymous_args = 0
	@ link register save eliminated.
.LVL208:
.LBB4314:
.LBB4315:
	.loc 13 21 0
	str	r1, [r0, #60]
	bx	lr
.LBE4315:
.LBE4314:
	.cfi_endproc
.LFE442:
	.size	setNextPC, .-setNextPC
	.section	.boot.text
	.align	2
	.global	initL2Cache
	.type	initL2Cache, %function
initL2Cache:
.LFB443:
	.file 20 "/home/neelesh/research/seL4-tutorials-manifest/kernel/src/arch/arm/machine/l2c_310.c"
	.loc 20 255 0
	.cfi_startproc
	@ args = 0, pretend = 0, frame = 0
	@ frame_needed = 0, uses_anonymous_args = 0
.LVL209:
	.loc 20 297 0
	movw	r3, #:lower16:.LANCHOR1
	mov	r1, #0
	movt	r3, #:upper16:.LANCHOR1
	.loc 20 255 0
	str	lr, [sp, #-4]!
	.cfi_def_cfa_offset 4
	.cfi_offset 14, -4
	.loc 20 297 0
	ldr	r2, [r3, #12]
	movt	r1, 15367
	.loc 20 298 0
	mov	lr, #272
	.loc 20 299 0
	mov	ip, #288
	.loc 20 300 0
	mov	r0, #805306368
	.loc 20 305 0
	movw	r3, #65535
	.loc 20 297 0
	str	r1, [r2, #260]
	.loc 20 298 0
	str	lr, [r2, #264]
	.loc 20 299 0
	str	ip, [r2, #268]
	.loc 20 300 0
	str	r0, [r2, #3936]
	.loc 20 305 0
	str	r3, [r2, #1916]
.L245:
	.loc 20 306 0 discriminator 1
	ldr	r3, [r2, #1916]
	ands	r3, r3, #1
	bne	.L245
	.loc 20 309 0
	ldr	r1, [r2, #4]
	and	r1, r1, #503316480
	cmp	r1, #469762048
	beq	.L250
.L246:
	.loc 20 328 0
	ldr	r3, [r2, #4]
	.loc 20 334 0
	mov	r1, #0
	.loc 20 328 0
	and	r3, r3, #503316480
	cmp	r3, #503316480
	.loc 20 330 0
	moveq	r3, #0
	streq	r3, [r2, #2384]
	.loc 20 336 0
	movw	r3, #511
	.loc 20 334 0
	str	r1, [r2, #532]
	.loc 20 336 0
	str	r3, [r2, #544]
	.loc 20 344 0
	ldr	r3, [r2, #256]
	orr	r3, r3, #1
	str	r3, [r2, #256]
	ldr	pc, [sp], #4
.L250:
	.loc 20 311 0
	str	r3, [r2, #2304]
	.loc 20 312 0
	str	r3, [r2, #2308]
	.loc 20 313 0
	str	r3, [r2, #2312]
	.loc 20 314 0
	str	r3, [r2, #2316]
	.loc 20 315 0
	str	r3, [r2, #2320]
	.loc 20 316 0
	str	r3, [r2, #2324]
	.loc 20 317 0
	str	r3, [r2, #2328]
	.loc 20 318 0
	str	r3, [r2, #2332]
	.loc 20 319 0
	str	r3, [r2, #2336]
	.loc 20 320 0
	str	r3, [r2, #2340]
	.loc 20 321 0
	str	r3, [r2, #2344]
	.loc 20 322 0
	str	r3, [r2, #2348]
	.loc 20 323 0
	str	r3, [r2, #2352]
	.loc 20 324 0
	str	r3, [r2, #2356]
	.loc 20 325 0
	str	r3, [r2, #2360]
	.loc 20 326 0
	str	r3, [r2, #2364]
	b	.L246
	.cfi_endproc
.LFE443:
	.size	initL2Cache, .-initL2Cache
	.text
	.align	2
	.global	plat_cleanCache
	.type	plat_cleanCache, %function
plat_cleanCache:
.LFB445:
	.loc 20 358 0
	.cfi_startproc
	@ args = 0, pretend = 0, frame = 0
	@ frame_needed = 0, uses_anonymous_args = 0
	@ link register save eliminated.
	.loc 20 361 0
	movw	r1, #:lower16:.LANCHOR1
	movw	r3, #65535
	movt	r1, #:upper16:.LANCHOR1
	ldr	r2, [r1, #12]
	str	r3, [r2, #1980]
.L252:
	.loc 20 362 0 discriminator 1
	ldr	r3, [r2, #1980]
	ands	r3, r3, #1
	bne	.L252
.LBB4316:
.LBB4317:
.LBB4318:
.LBB4319:
	.loc 2 23 0
@ 23 "/home/neelesh/research/seL4-tutorials-manifest/kernel/include/arch/arm/armv/armv7-a/armv/machine.h" 1
	dmb
@ 0 "" 2
.LBE4319:
.LBE4318:
	.loc 20 353 0
	ldr	r2, [r1, #12]
	str	r3, [r2, #1840]
.L253:
	.loc 20 354 0
	ldr	r3, [r2, #1840]
	tst	r3, #1
	bne	.L253
.LBE4317:
.LBE4316:
	.loc 20 365 0
	bx	lr
	.cfi_endproc
.LFE445:
	.size	plat_cleanCache, .-plat_cleanCache
	.section	.boot.text
	.align	2
	.global	initTimer
	.type	initTimer, %function
initTimer:
.LFB449:
	.file 21 "/home/neelesh/research/seL4-tutorials-manifest/kernel/src/arch/arm/machine/priv_timer.c"
	.loc 21 41 0
	.cfi_startproc
	@ args = 0, pretend = 0, frame = 0
	@ frame_needed = 0, uses_anonymous_args = 0
	@ link register save eliminated.
	.loc 21 43 0
	movw	r3, #:lower16:.LANCHOR1
	.loc 21 47 0
	mov	r2, #13568
	.loc 21 43 0
	movt	r3, #:upper16:.LANCHOR1
	mov	r1, #0
	ldr	r3, [r3, #16]
	.loc 21 47 0
	movt	r2, 12
	.loc 21 43 0
	str	r1, [r3, #8]
	.loc 21 44 0
	str	r1, [r3, #12]
	.loc 21 47 0
	str	r2, [r3]
	.loc 21 48 0
	ldr	r2, [r3, #8]
	orr	r2, r2, #6
	str	r2, [r3, #8]
	.loc 21 52 0
	ldr	r2, [r3, #8]
	orr	r2, r2, #1
	str	r2, [r3, #8]
	bx	lr
	.cfi_endproc
.LFE449:
	.size	initTimer, .-initTimer
	.text
	.align	2
	.global	resetTimer
	.type	resetTimer, %function
resetTimer:
.LFB450:
	.loc 21 60 0
	.cfi_startproc
	@ args = 0, pretend = 0, frame = 0
	@ frame_needed = 0, uses_anonymous_args = 0
	@ link register save eliminated.
	.loc 21 61 0
	movw	r3, #:lower16:.LANCHOR1
	mov	r2, #1
	movt	r3, #:upper16:.LANCHOR1
	ldr	r3, [r3, #16]
	str	r2, [r3, #12]
	bx	lr
	.cfi_endproc
.LFE450:
	.size	resetTimer, .-resetTimer
	.align	2
	.global	Arch_decodeInterruptControl
	.type	Arch_decodeInterruptControl, %function
Arch_decodeInterruptControl:
.LFB451:
	.file 22 "/home/neelesh/research/seL4-tutorials-manifest/kernel/src/arch/arm/object/interrupt.c"
	.loc 22 18 0
	.cfi_startproc
	@ args = 0, pretend = 0, frame = 16
	@ frame_needed = 0, uses_anonymous_args = 0
.LVL210:
	str	lr, [sp, #-4]!
	.cfi_def_cfa_offset 4
	.cfi_offset 14, -4
	.loc 22 19 0
	movw	ip, #:lower16:current_syscall_error
	.loc 22 18 0
	sub	sp, sp, #20
	.cfi_def_cfa_offset 24
	.loc 22 19 0
	mov	r0, #3
.LVL211:
	movt	ip, #:upper16:current_syscall_error
	.loc 22 18 0
	add	lr, sp, #16
	stmdb	lr, {r1, r2, r3}
	.loc 22 19 0
	str	r0, [ip, #24]
	.loc 22 21 0
	add	sp, sp, #20
	.cfi_def_cfa_offset 4
	@ sp needed
	ldr	pc, [sp], #4
	.cfi_endproc
.LFE451:
	.size	Arch_decodeInterruptControl, .-Arch_decodeInterruptControl
	.align	2
	.global	Arch_updateCapData
	.type	Arch_updateCapData, %function
Arch_updateCapData:
.LFB453:
	.file 23 "/home/neelesh/research/seL4-tutorials-manifest/kernel/src/arch/arm/object/objecttype.c"
	.loc 23 76 0
	.cfi_startproc
	@ args = 12, pretend = 8, frame = 0
	@ frame_needed = 0, uses_anonymous_args = 0
	@ link register save eliminated.
.LVL212:
	sub	sp, sp, #8
	.cfi_def_cfa_offset 8
	.loc 23 76 0
	mov	ip, r0
	sub	r2, sp, #4
.LVL213:
	.loc 23 78 0
	add	sp, sp, #8
	.cfi_def_cfa_offset 0
	.loc 23 76 0
	str	r3, [r2, #8]!
	.loc 23 77 0
	ldmia	r2, {r0, r1}
.LVL214:
	stmia	ip, {r0, r1}
	.loc 23 78 0
	mov	r0, ip
	bx	lr
	.cfi_endproc
.LFE453:
	.size	Arch_updateCapData, .-Arch_updateCapData
	.align	2
	.global	Arch_prepareThreadDelete
	.type	Arch_prepareThreadDelete, %function
Arch_prepareThreadDelete:
.LFB464:
	.loc 23 474 0
	.cfi_startproc
	@ args = 0, pretend = 0, frame = 0
	@ frame_needed = 0, uses_anonymous_args = 0
	@ link register save eliminated.
.LVL215:
	bx	lr
	.cfi_endproc
.LFE464:
	.size	Arch_prepareThreadDelete, .-Arch_prepareThreadDelete
	.align	2
	.global	Arch_decodeTransfer
	.type	Arch_decodeTransfer, %function
Arch_decodeTransfer:
.LFB469:
	.file 24 "/home/neelesh/research/seL4-tutorials-manifest/kernel/src/arch/arm/object/tcb.c"
	.loc 24 179 0
	.cfi_startproc
	@ args = 0, pretend = 0, frame = 0
	@ frame_needed = 0, uses_anonymous_args = 0
	@ link register save eliminated.
.LVL216:
	.loc 24 181 0
	mov	r0, #0
.LVL217:
	bx	lr
	.cfi_endproc
.LFE469:
	.size	Arch_decodeTransfer, .-Arch_decodeTransfer
	.align	2
	.global	Arch_performTransfer
	.type	Arch_performTransfer, %function
Arch_performTransfer:
.LFB470:
	.loc 24 185 0
	.cfi_startproc
	@ args = 0, pretend = 0, frame = 0
	@ frame_needed = 0, uses_anonymous_args = 0
	@ link register save eliminated.
.LVL218:
	.loc 24 187 0
	mov	r0, #0
.LVL219:
	bx	lr
	.cfi_endproc
.LFE470:
	.size	Arch_performTransfer, .-Arch_performTransfer
	.section	.boot.text
	.align	2
	.global	bi_finalise
	.type	bi_finalise, %function
bi_finalise:
.LFB510:
	.file 25 "/home/neelesh/research/seL4-tutorials-manifest/kernel/src/kernel/boot.c"
	.loc 25 538 0
	.cfi_startproc
	@ args = 0, pretend = 0, frame = 0
	@ frame_needed = 0, uses_anonymous_args = 0
	@ link register save eliminated.
.LVL220:
	.loc 25 540 0
	movw	r3, #:lower16:.LANCHOR3
	movt	r3, #:upper16:.LANCHOR3
	ldr	r1, [r3, #24]
.LVL221:
	.loc 25 541 0
	ldr	r2, [r3, #16]
	ldr	r3, [r3, #20]
	str	r1, [r2, #20]
.LVL222:
	str	r3, [r2, #16]
	bx	lr
	.cfi_endproc
.LFE510:
	.size	bi_finalise, .-bi_finalise
	.text
	.align	2
	.global	doNBRecvFailedTransfer
	.type	doNBRecvFailedTransfer, %function
doNBRecvFailedTransfer:
.LFB534:
	.file 26 "/home/neelesh/research/seL4-tutorials-manifest/kernel/src/kernel/thread.c"
	.loc 26 265 0
	.cfi_startproc
	@ args = 0, pretend = 0, frame = 0
	@ frame_needed = 0, uses_anonymous_args = 0
	@ link register save eliminated.
.LVL223:
.LBB4320:
.LBB4321:
	.loc 13 21 0
	mov	r3, #0
	str	r3, [r0]
	bx	lr
.LBE4321:
.LBE4320:
	.cfi_endproc
.LFE534:
	.size	doNBRecvFailedTransfer, .-doNBRecvFailedTransfer
	.align	2
	.global	switchToIdleThread
	.type	switchToIdleThread, %function
switchToIdleThread:
.LFB539:
	.loc 26 343 0
	.cfi_startproc
	@ args = 0, pretend = 0, frame = 0
	@ frame_needed = 0, uses_anonymous_args = 0
	@ link register save eliminated.
	.loc 26 345 0
	movw	r1, #:lower16:ksIdleThread
	movw	r3, #:lower16:ksCurThread
	movt	r1, #:upper16:ksIdleThread
.LBB4322:
.LBB4323:
	.loc 12 36 0
	movw	r2, #:lower16:.LANCHOR2
.LBE4323:
.LBE4322:
	.loc 26 345 0
	ldr	r1, [r1]
	movt	r3, #:upper16:ksCurThread
.LBB4325:
.LBB4324:
	.loc 12 36 0
	movt	r2, #:upper16:.LANCHOR2
	mov	r0, #0
	str	r0, [r2, #16]
.LBE4324:
.LBE4325:
	.loc 26 345 0
	str	r1, [r3]
	bx	lr
	.cfi_endproc
.LFE539:
	.size	switchToIdleThread, .-switchToIdleThread
	.align	2
	.global	preemptionPoint
	.type	preemptionPoint, %function
preemptionPoint:
.LFB557:
	.loc 8 22 0
	.cfi_startproc
	@ args = 0, pretend = 0, frame = 0
	@ frame_needed = 0, uses_anonymous_args = 0
	@ link register save eliminated.
	.loc 8 24 0
	movw	r3, #:lower16:ksWorkUnitsCompleted
	movt	r3, #:upper16:ksWorkUnitsCompleted
	ldr	r2, [r3]
	add	r2, r2, #1
	.loc 8 34 0
	cmp	r2, #99
	.loc 8 24 0
	str	r2, [r3]
	.loc 8 34 0
	bls	.L269
	b	preemptionPoint.part.51
.LVL224:
.L269:
	.loc 8 42 0
	mov	r0, #0
	bx	lr
	.cfi_endproc
.LFE557:
	.size	preemptionPoint, .-preemptionPoint
	.align	2
	.global	ensureEmptySlot
	.type	ensureEmptySlot, %function
ensureEmptySlot:
.LFB584:
	.file 27 "/home/neelesh/research/seL4-tutorials-manifest/kernel/src/object/cnode.c"
	.loc 27 893 0
	.cfi_startproc
	@ args = 0, pretend = 0, frame = 0
	@ frame_needed = 0, uses_anonymous_args = 0
	@ link register save eliminated.
.LVL225:
	ldr	r0, [r0]
.LVL226:
.LBB4326:
.LBB4327:
	.file 28 "./arch/object/structures_gen.h"
	.loc 28 1035 0
	and	r3, r0, #14
	cmp	r3, #14
	.loc 28 1037 0
	uxtbeq	r0, r0
.LVL227:
	.loc 28 1036 0
	andne	r0, r0, #15
.LBE4327:
.LBE4326:
	.loc 27 894 0
	cmp	r0, #0
	.loc 27 895 0
	movwne	r3, #:lower16:current_syscall_error
	movne	r2, #8
	movtne	r3, #:upper16:current_syscall_error
	.loc 27 896 0
	movne	r0, #3
	.loc 27 895 0
	strne	r2, [r3, #24]
	.loc 27 900 0
	bx	lr
	.cfi_endproc
.LFE584:
	.size	ensureEmptySlot, .-ensureEmptySlot
	.align	2
	.global	loadCapTransfer
	.type	loadCapTransfer, %function
loadCapTransfer:
.LFB588:
	.loc 27 991 0
	.cfi_startproc
	@ args = 0, pretend = 0, frame = 0
	@ frame_needed = 0, uses_anonymous_args = 0
.LVL228:
	str	lr, [sp, #-4]!
	.cfi_def_cfa_offset 4
	.cfi_offset 14, -4
.LBB4328:
.LBB4329:
	.file 29 "/home/neelesh/research/seL4-tutorials-manifest/kernel/include/api/types.h"
	.loc 29 67 0
	ldr	ip, [r1, #500]
	.loc 29 65 0
	ldr	lr, [r1, #504]
.LVL229:
	.loc 29 66 0
	ldr	r2, [r1, #508]
.LVL230:
	.loc 29 67 0
	stmia	r0, {ip, lr}
	str	r2, [r0, #8]
.LBE4329:
.LBE4328:
	.loc 27 994 0
	ldr	pc, [sp], #4
	.cfi_endproc
.LFE588:
	.size	loadCapTransfer, .-loadCapTransfer
	.align	2
	.global	invokeIRQHandler_AckIRQ
	.type	invokeIRQHandler_AckIRQ, %function
invokeIRQHandler_AckIRQ:
.LFB601:
	.file 30 "/home/neelesh/research/seL4-tutorials-manifest/kernel/src/object/interrupt.c"
	.loc 30 159 0
	.cfi_startproc
	@ args = 0, pretend = 0, frame = 0
	@ frame_needed = 0, uses_anonymous_args = 0
	@ link register save eliminated.
.LVL231:
	.loc 30 159 0
	mov	r1, r0
	.loc 30 160 0
	mov	r0, #0
.LVL232:
	b	maskInterrupt
.LVL233:
	.cfi_endproc
.LFE601:
	.size	invokeIRQHandler_AckIRQ, .-invokeIRQHandler_AckIRQ
	.align	2
	.global	invokeIRQHandler_SetMode
	.type	invokeIRQHandler_SetMode, %function
invokeIRQHandler_SetMode:
.LFB602:
	.loc 30 164 0
	.cfi_startproc
	@ args = 0, pretend = 0, frame = 0
	@ frame_needed = 0, uses_anonymous_args = 0
	@ link register save eliminated.
.LVL234:
	bx	lr
	.cfi_endproc
.LFE602:
	.size	invokeIRQHandler_SetMode, .-invokeIRQHandler_SetMode
	.align	2
	.global	deletedIRQHandler
	.type	deletedIRQHandler, %function
deletedIRQHandler:
.LFB606:
	.loc 30 201 0
	.cfi_startproc
	@ args = 0, pretend = 0, frame = 0
	@ frame_needed = 0, uses_anonymous_args = 0
	@ link register save eliminated.
.LVL235:
.LBB4336:
.LBB4337:
	.loc 30 265 0
	movw	r3, #:lower16:intStateIRQTable
.LVL236:
	mov	r1, #0
	movt	r3, #:upper16:intStateIRQTable
	str	r1, [r3, r0, asl #2]
.LVL237:
.LBB4338:
.LBB4339:
	b	maskInterrupt.part.50
.LVL238:
.LBE4339:
.LBE4338:
.LBE4337:
.LBE4336:
	.cfi_endproc
.LFE606:
	.size	deletedIRQHandler, .-deletedIRQHandler
	.align	2
	.global	isIRQActive
	.type	isIRQActive, %function
isIRQActive:
.LFB608:
	.loc 30 258 0
	.cfi_startproc
	@ args = 0, pretend = 0, frame = 0
	@ frame_needed = 0, uses_anonymous_args = 0
	@ link register save eliminated.
.LVL239:
	.loc 30 259 0
	movw	r3, #:lower16:intStateIRQTable
	movt	r3, #:upper16:intStateIRQTable
	ldr	r0, [r3, r0, asl #2]
.LVL240:
	.loc 30 260 0
	adds	r0, r0, #0
	movne	r0, #1
	bx	lr
	.cfi_endproc
.LFE608:
	.size	isIRQActive, .-isIRQActive
	.align	2
	.global	setIRQState
	.type	setIRQState, %function
setIRQState:
.LFB609:
	.loc 30 264 0
	.cfi_startproc
	@ args = 0, pretend = 0, frame = 0
	@ frame_needed = 0, uses_anonymous_args = 0
	@ link register save eliminated.
.LVL241:
	.loc 30 265 0
	movw	r3, #:lower16:intStateIRQTable
	.loc 30 264 0
	mov	r2, r0
	.loc 30 265 0
	movt	r3, #:upper16:intStateIRQTable
	.loc 30 266 0
	clz	r0, r0
.LVL242:
	mov	r0, r0, lsr #5
	.loc 30 265 0
	str	r2, [r3, r1, asl #2]
	.loc 30 266 0
	b	maskInterrupt
.LVL243:
	.cfi_endproc
.LFE609:
	.size	setIRQState, .-setIRQState
	.align	2
	.global	tcbEPAppend
	.type	tcbEPAppend, %function
tcbEPAppend:
.LFB642:
	.file 31 "/home/neelesh/research/seL4-tutorials-manifest/kernel/src/object/tcb.c"
	.loc 31 150 0
	.cfi_startproc
	@ args = 0, pretend = 0, frame = 8
	@ frame_needed = 0, uses_anonymous_args = 0
	@ link register save eliminated.
.LVL244:
	sub	sp, sp, #8
	.cfi_def_cfa_offset 8
	.loc 31 150 0
	add	ip, sp, #8
	stmdb	ip, {r2, r3}
	mov	r3, r0
	ldr	r2, [sp]
.LVL245:
	.loc 31 157 0
	mov	ip, #0
	ldr	r0, [sp, #4]
.LVL246:
	.loc 31 160 0
	str	r1, [r3, #4]
	.loc 31 151 0
	cmp	r2, #0
	moveq	r2, r1
.LVL247:
	.loc 31 154 0
	strne	r1, [r0, #132]
	.loc 31 160 0
	str	r2, [r3]
	.loc 31 156 0
	str	r0, [r1, #136]
	.loc 31 161 0
	mov	r0, r3
.LVL248:
	.loc 31 157 0
	str	ip, [r1, #132]
.LVL249:
	.loc 31 161 0
	add	sp, sp, #8
	.cfi_def_cfa_offset 0
	@ sp needed
	bx	lr
	.cfi_endproc
.LFE642:
	.size	tcbEPAppend, .-tcbEPAppend
	.align	2
	.global	tcbEPDequeue
	.type	tcbEPDequeue, %function
tcbEPDequeue:
.LFB643:
	.loc 31 166 0
	.cfi_startproc
	@ args = 0, pretend = 0, frame = 8
	@ frame_needed = 0, uses_anonymous_args = 0
.LVL250:
	str	lr, [sp, #-4]!
	.cfi_def_cfa_offset 4
	.cfi_offset 14, -4
	sub	sp, sp, #12
	.cfi_def_cfa_offset 16
	.loc 31 166 0
	add	ip, sp, #8
	stmdb	ip, {r2, r3}
	mov	r3, r0
	.loc 31 167 0
	ldr	r2, [r1, #136]
	ldmia	sp, {r0, ip}
.LVL251:
	cmp	r2, #0
	.loc 31 168 0
	ldrne	lr, [r1, #132]
	.loc 31 170 0
	ldreq	r0, [r1, #132]
.LVL252:
	.loc 31 168 0
	strne	lr, [r2, #132]
	ldrne	r1, [r1, #132]
.LVL253:
	.loc 31 170 0
	moveq	r1, r0
	.loc 31 179 0
	str	r0, [r3]
	.loc 31 180 0
	mov	r0, r3
.LVL254:
	.loc 31 173 0
	cmp	r1, #0
	.loc 31 167 0
	moveq	ip, r2
.LVL255:
	.loc 31 174 0
	strne	r2, [r1, #136]
	.loc 31 179 0
	str	ip, [r3, #4]
	.loc 31 180 0
	add	sp, sp, #12
	.cfi_def_cfa_offset 4
	@ sp needed
	ldr	pc, [sp], #4
	.cfi_endproc
.LFE643:
	.size	tcbEPDequeue, .-tcbEPDequeue
	.align	2
	.global	getExtraCPtr
	.type	getExtraCPtr, %function
getExtraCPtr:
.LFB644:
	.loc 31 184 0
	.cfi_startproc
	@ args = 0, pretend = 0, frame = 0
	@ frame_needed = 0, uses_anonymous_args = 0
	@ link register save eliminated.
.LVL256:
	.loc 31 185 0
	add	r1, r1, #122
.LVL257:
	.loc 31 186 0
	ldr	r0, [r0, r1, asl #2]
.LVL258:
	bx	lr
	.cfi_endproc
.LFE644:
	.size	getExtraCPtr, .-getExtraCPtr
	.align	2
	.global	setExtraBadge
	.type	setExtraBadge, %function
setExtraBadge:
.LFB645:
	.loc 31 191 0
	.cfi_startproc
	@ args = 0, pretend = 0, frame = 0
	@ frame_needed = 0, uses_anonymous_args = 0
	@ link register save eliminated.
.LVL259:
	.loc 31 192 0
	add	r2, r2, #122
.LVL260:
	str	r1, [r0, r2, asl #2]
	bx	lr
	.cfi_endproc
.LFE645:
	.size	setExtraBadge, .-setExtraBadge
	.align	2
	.global	copyMRs
	.type	copyMRs, %function
copyMRs:
.LFB649:
	.loc 31 264 0
	.cfi_startproc
	@ args = 4, pretend = 0, frame = 0
	@ frame_needed = 0, uses_anonymous_args = 0
.LVL261:
	stmfd	sp!, {r4, r5, r6, lr}
	.cfi_def_cfa_offset 16
	.cfi_offset 4, -16
	.cfi_offset 5, -12
	.cfi_offset 6, -8
	.cfi_offset 14, -4
	.loc 31 264 0
	ldr	r5, [sp, #16]
	.loc 31 268 0
	cmp	r5, #0
	beq	.L303
	movw	lr, #:lower16:.LANCHOR4
	mov	r6, r0
	movt	lr, #:upper16:.LANCHOR4
	mov	r0, #0
.LVL262:
.L298:
	.loc 31 268 0 is_stmt 0 discriminator 3
	add	r0, r0, #1
.LVL263:
	.loc 31 269 0 is_stmt 1 discriminator 3
	ldr	ip, [lr], #4
.LVL264:
	.loc 31 268 0 discriminator 3
	cmp	r5, r0
	movhi	r4, #1
	movls	r4, #0
	cmp	r0, #3
	movhi	r4, #0
	cmp	r4, #0
.LBB4340:
.LBB4341:
	.loc 13 27 0 discriminator 3
	ldr	r4, [r6, ip, asl #2]
.LVL265:
.LBE4341:
.LBE4340:
.LBB4342:
.LBB4343:
	.loc 13 21 0 discriminator 3
	str	r4, [r2, ip, asl #2]
.LBE4343:
.LBE4342:
	.loc 31 268 0 discriminator 3
	bne	.L298
	.loc 31 273 0
	cmp	r1, #0
	cmpne	r3, #0
	ldmeqfd	sp!, {r4, r5, r6, pc}
	.loc 31 278 0 discriminator 1
	cmp	r5, r0
	bls	.L302
	mov	r0, r0, asl #2
.LVL266:
	add	ip, r1, r5, asl #2
.LVL267:
	add	r3, r3, r0
.LVL268:
	add	r1, r1, r0
.LVL269:
.L301:
	.loc 31 279 0 discriminator 2
	ldr	r2, [r1, #4]!
	.loc 31 278 0 discriminator 2
	cmp	r1, ip
	.loc 31 279 0 discriminator 2
	str	r2, [r3, #4]!
	.loc 31 278 0 discriminator 2
	bne	.L301
.LVL270:
.L303:
	.loc 31 268 0
	mov	r0, r5
	ldmfd	sp!, {r4, r5, r6, pc}
.LVL271:
.L302:
	.loc 31 278 0
	mov	r5, r0
	b	.L303
	.cfi_endproc
.LFE649:
	.size	copyMRs, .-copyMRs
	.align	2
	.global	setThreadName
	.type	setThreadName, %function
setThreadName:
.LFB668:
	.loc 31 1102 0
	.cfi_startproc
	@ args = 0, pretend = 0, frame = 0
	@ frame_needed = 0, uses_anonymous_args = 0
	@ link register save eliminated.
.LVL272:
.LBB4344:
.LBB4345:
	.file 32 "/home/neelesh/research/seL4-tutorials-manifest/kernel/src/string.c"
	.loc 32 26 0
	ldrb	r3, [r1]	@ zero_extendqisi2
.LBE4345:
.LBE4344:
	.loc 31 1103 0
	add	ip, r0, #140
.LVL273:
.LBB4347:
.LBB4346:
	.loc 32 26 0
	cmp	r3, #0
	.loc 32 27 0
	strneb	r3, [r0, #140]
.LVL274:
	movne	r0, ip
.LVL275:
	movne	r3, #1
	.loc 32 26 0
	bne	.L312
	b	.L310
.LVL276:
.L311:
	add	r3, r3, #1
.LVL277:
	.loc 32 27 0
	strb	r2, [r0, #1]!
.LVL278:
	.loc 32 26 0
	cmp	r3, #115
	beq	.L310
.LVL279:
.L312:
	ldrb	r2, [r1, #1]!	@ zero_extendqisi2
	cmp	r2, #0
	bne	.L311
.LVL280:
.L310:
	.loc 32 29 0
	mov	r2, #0
	strb	r2, [ip, r3]
	bx	lr
.LBE4346:
.LBE4347:
	.cfi_endproc
.LFE668:
	.size	setThreadName, .-setThreadName
	.section	.boot.text
	.align	2
	.global	get_num_avail_p_regs
	.type	get_num_avail_p_regs, %function
get_num_avail_p_regs:
.LFB672:
	.file 33 "/home/neelesh/research/seL4-tutorials-manifest/kernel/src/plat/zynq7000/machine/hardware.c"
	.loc 33 30 0
	.cfi_startproc
	@ args = 0, pretend = 0, frame = 0
	@ frame_needed = 0, uses_anonymous_args = 0
	@ link register save eliminated.
	.loc 33 32 0
	mov	r0, #1
	bx	lr
	.cfi_endproc
.LFE672:
	.size	get_num_avail_p_regs, .-get_num_avail_p_regs
	.align	2
	.global	get_avail_p_reg
	.type	get_avail_p_reg, %function
get_avail_p_reg:
.LFB673:
	.loc 33 36 0
	.cfi_startproc
	@ args = 0, pretend = 0, frame = 0
	@ frame_needed = 0, uses_anonymous_args = 0
	@ link register save eliminated.
.LVL281:
	.loc 33 37 0
	movw	r3, #:lower16:.LANCHOR5
	.loc 33 36 0
	mov	r2, r0
	.loc 33 37 0
	movt	r3, #:upper16:.LANCHOR5
	add	r1, r3, r1, asl #3
.LVL282:
	ldmia	r1, {r0, r1}
.LVL283:
	stmia	r2, {r0, r1}
	.loc 33 38 0
	mov	r0, r2
	bx	lr
	.cfi_endproc
.LFE673:
	.size	get_avail_p_reg, .-get_avail_p_reg
	.align	2
	.global	get_num_dev_p_regs
	.type	get_num_dev_p_regs, %function
get_num_dev_p_regs:
.LFB674:
	.loc 33 105 0
	.cfi_startproc
	@ args = 0, pretend = 0, frame = 0
	@ frame_needed = 0, uses_anonymous_args = 0
	@ link register save eliminated.
	.loc 33 107 0
	mov	r0, #56
	bx	lr
	.cfi_endproc
.LFE674:
	.size	get_num_dev_p_regs, .-get_num_dev_p_regs
	.align	2
	.global	get_dev_p_reg
	.type	get_dev_p_reg, %function
get_dev_p_reg:
.LFB675:
	.loc 33 111 0
	.cfi_startproc
	@ args = 0, pretend = 0, frame = 0
	@ frame_needed = 0, uses_anonymous_args = 0
	@ link register save eliminated.
.LVL284:
	.loc 33 112 0
	movw	r3, #:lower16:.LANCHOR5
	.loc 33 111 0
	mov	r2, r0
	.loc 33 112 0
	movt	r3, #:upper16:.LANCHOR5
	add	r1, r3, r1, asl #3
.LVL285:
	add	r1, r1, #8
	ldmia	r1, {r0, r1}
.LVL286:
	stmia	r2, {r0, r1}
	.loc 33 113 0
	mov	r0, r2
	bx	lr
	.cfi_endproc
.LFE675:
	.size	get_dev_p_reg, .-get_dev_p_reg
	.text
	.align	2
	.global	isReservedIRQ
	.type	isReservedIRQ, %function
isReservedIRQ:
.LFB676:
	.loc 33 119 0
	.cfi_startproc
	@ args = 0, pretend = 0, frame = 0
	@ frame_needed = 0, uses_anonymous_args = 0
	@ link register save eliminated.
.LVL287:
	.loc 33 121 0
	sub	r0, r0, #29
.LVL288:
	clz	r0, r0
	mov	r0, r0, lsr #5
	bx	lr
	.cfi_endproc
.LFE676:
	.size	isReservedIRQ, .-isReservedIRQ
	.align	2
	.global	zynq_uart_putchar
	.type	zynq_uart_putchar, %function
zynq_uart_putchar:
.LFB679:
	.loc 6 43 0
	.cfi_startproc
	@ args = 0, pretend = 0, frame = 0
	@ frame_needed = 0, uses_anonymous_args = 0
	@ link register save eliminated.
.LVL289:
.LBB4356:
.LBB4357:
	.loc 6 52 0
	mvn	r1, #1040384
.L324:
	ldr	r3, [r1, #-4051]
	mvn	r2, #1040384
	tst	r3, #8
	beq	.L324
.LBE4357:
.LBE4356:
	.loc 6 45 0
	cmp	r0, #10
.LBB4359:
.LBB4358:
	.loc 6 53 0
	str	r0, [r2, #-4047]
.LBE4358:
.LBE4359:
	.loc 6 45 0
	bxne	lr
.L326:
.LBB4360:
.LBB4361:
.LBB4362:
	.loc 6 52 0
	ldr	r3, [r2, #-4051]
	mvn	r1, #1040384
	tst	r3, #8
	beq	.L326
	.loc 6 53 0
	mov	r3, #13
	str	r3, [r1, #-4047]
	bx	lr
.LBE4362:
.LBE4361:
.LBE4360:
	.cfi_endproc
.LFE679:
	.size	zynq_uart_putchar, .-zynq_uart_putchar
	.align	2
	.global	print_unsigned_long
	.type	print_unsigned_long, %function
print_unsigned_long:
.LFB552:
	.file 34 "/home/neelesh/research/seL4-tutorials-manifest/kernel/src/machine/io.c"
	.loc 34 56 0
	.cfi_startproc
	@ args = 0, pretend = 0, frame = 16
	@ frame_needed = 0, uses_anonymous_args = 0
.LVL290:
	.loc 34 65 0
	cmp	r1, #16
	cmpne	r1, #10
	.loc 34 56 0
	stmfd	sp!, {r4, r5, r6, lr}
	.cfi_def_cfa_offset 16
	.cfi_offset 4, -16
	.cfi_offset 5, -12
	.cfi_offset 6, -8
	.cfi_offset 14, -4
	.loc 34 66 0
	movne	r0, #0
.LVL291:
	.loc 34 56 0
	sub	sp, sp, #16
	.cfi_def_cfa_offset 32
	.loc 34 65 0
	movne	r4, #1
	moveq	r4, #0
	bne	.L362
	.loc 34 69 0
	cmp	r0, #0
	beq	.L333
.LVL292:
.LBB4369:
.LBB4370:
.LBB4371:
.LBB4372:
	.loc 34 44 0
	cmp	r1, #10
	beq	.L348
	cmp	r1, #16
	bne	.L360
	mov	r2, #1
	b	.L336
.LVL293:
.L366:
	add	r2, r4, #1
.LVL294:
.L336:
	.loc 34 46 0
	and	r3, r0, #15
.LBE4372:
.LBE4371:
	.loc 34 77 0
	cmp	r3, #9
	bls	.L365
	.loc 34 78 0
	add	ip, sp, #16
	add	r3, r3, #87
	add	r4, ip, r4
.LVL295:
	strb	r3, [r4, #-12]
.LVL296:
	mov	r4, r2
.L339:
.LVL297:
	.loc 34 74 0
	movs	r0, r0, lsr #4
.LVL298:
	bne	.L366
	b	.L340
.LVL299:
.L348:
.LBB4375:
.LBB4373:
	.loc 34 44 0
	mov	lr, r4
	mov	ip, #1
.LVL300:
.L335:
	.loc 34 48 0
	movw	r2, #52429
	movt	r2, 52428
	umull	r2, r3, r0, r2
	mov	r2, r3, lsr #3
	mov	r3, r2, asl #3
	add	r3, r3, r2, asl #1
	rsb	r3, r3, r0
	add	r3, r3, #48
	uxtb	r3, r3
.LVL301:
.L334:
.LBE4373:
.LBE4375:
	.loc 34 77 0
	mov	r4, ip
.L345:
	.loc 34 80 0
	add	r2, sp, #16
.LBB4376:
.LBB4377:
	.loc 34 31 0
	cmp	r1, #10
.LBE4377:
.LBE4376:
	.loc 34 80 0
	add	lr, r2, lr
	strb	r3, [lr, #-12]
.LVL302:
.LBB4380:
.LBB4378:
	.loc 34 31 0
	beq	.L341
	cmp	r1, #16
	beq	.L339
.LVL303:
.L340:
.LBE4378:
.LBE4380:
	.loc 34 84 0
	cmp	r4, #0
	addne	r3, sp, #4
	movne	r5, r4
	addne	r6, r3, r4
	beq	.L344
.LVL304:
.L343:
	.loc 34 85 0
	sub	r5, r5, #1
.LVL305:
	ldrb	r0, [r6, #-1]!	@ zero_extendqisi2
	bl	zynq_uart_putchar
.LVL306:
	.loc 34 84 0
	cmp	r5, #0
	bne	.L343
.LVL307:
.L344:
	mov	r0, r4
.LVL308:
.L362:
.LBE4370:
.LBE4369:
	.loc 34 89 0
	add	sp, sp, #16
	.cfi_remember_state
	.cfi_def_cfa_offset 16
	@ sp needed
	ldmfd	sp!, {r4, r5, r6, pc}
.LVL309:
.L341:
	.cfi_restore_state
.LBB4385:
.LBB4383:
.LBB4381:
.LBB4379:
	.loc 34 35 0
	movw	r2, #52429
	movt	r2, 52428
	umull	r2, r3, r0, r2
.LVL310:
.LBE4379:
.LBE4381:
	.loc 34 74 0
	movs	r0, r3, lsr #3
.LVL311:
	beq	.L340
	add	ip, r4, #1
	mov	lr, r4
	b	.L335
.LVL312:
.L360:
.LBB4382:
.LBB4374:
	.loc 34 44 0
	mov	lr, r4
	mov	ip, #1
	mov	r3, #48
	b	.L334
.LVL313:
.L333:
.LBE4374:
.LBE4382:
.LBE4383:
.LBE4385:
	.loc 34 70 0
	mov	r0, #48
	bl	zynq_uart_putchar
.LVL314:
	.loc 34 71 0
	mov	r0, #1
	.loc 34 89 0
	add	sp, sp, #16
	.cfi_remember_state
	.cfi_def_cfa_offset 16
	@ sp needed
	ldmfd	sp!, {r4, r5, r6, pc}
.LVL315:
.L365:
	.cfi_restore_state
.LBB4386:
.LBB4384:
	.loc 34 77 0
	mov	lr, r4
	add	r3, r3, #48
	mov	r4, r2
.LVL316:
	b	.L345
.LBE4384:
.LBE4386:
	.cfi_endproc
.LFE552:
	.size	print_unsigned_long, .-print_unsigned_long
	.align	2
	.global	puts
	.type	puts, %function
puts:
.LFB555:
	.loc 34 251 0
	.cfi_startproc
	@ args = 0, pretend = 0, frame = 0
	@ frame_needed = 0, uses_anonymous_args = 0
.LVL317:
	stmfd	sp!, {r4, lr}
	.cfi_def_cfa_offset 8
	.cfi_offset 4, -8
	.cfi_offset 14, -4
	.loc 34 251 0
	mov	r4, r0
	.loc 34 252 0
	ldrb	r0, [r0]	@ zero_extendqisi2
.LVL318:
	cmp	r0, #0
	beq	.L370
.LVL319:
.L369:
	.loc 34 253 0 discriminator 2
	bl	zynq_uart_putchar
.LVL320:
	.loc 34 252 0 discriminator 2
	ldrb	r0, [r4, #1]!	@ zero_extendqisi2
.LVL321:
	cmp	r0, #0
	bne	.L369
.LVL322:
.L370:
	.loc 34 255 0
	mov	r0, #10
	bl	zynq_uart_putchar
.LVL323:
	.loc 34 257 0
	mov	r0, #0
	ldmfd	sp!, {r4, pc}
	.cfi_endproc
.LFE555:
	.size	puts, .-puts
	.align	2
	.global	kprintf
	.type	kprintf, %function
kprintf:
.LFB556:
	.loc 34 261 0
	.cfi_startproc
	@ args = 4, pretend = 16, frame = 8
	@ frame_needed = 0, uses_anonymous_args = 1
.LVL324:
	stmfd	sp!, {r0, r1, r2, r3}
	.cfi_def_cfa_offset 16
	.cfi_offset 0, -16
	.cfi_offset 1, -12
	.cfi_offset 2, -8
	.cfi_offset 3, -4
	stmfd	sp!, {r4, r5, r6, r7, r8, r9, lr}
	.cfi_def_cfa_offset 44
	.cfi_offset 4, -44
	.cfi_offset 5, -40
	.cfi_offset 6, -36
	.cfi_offset 7, -32
	.cfi_offset 8, -28
	.cfi_offset 9, -24
	.cfi_offset 14, -20
	sub	sp, sp, #12
	.cfi_def_cfa_offset 56
	.loc 34 265 0
	add	r5, sp, #44
	.loc 34 261 0
	ldr	r4, [sp, #40]
	.loc 34 265 0
	str	r5, [sp, #4]
.LVL325:
.LBB4400:
.LBB4401:
	.loc 34 133 0
	cmp	r4, #0
	beq	.L406
	mov	r6, #0
	mov	r7, r6
.LVL326:
.L376:
	.loc 34 139 0
	ldrb	r0, [r4]	@ zero_extendqisi2
	cmp	r0, #0
	beq	.L421
.L405:
	.loc 34 140 0
	cmp	r6, #0
	beq	.L377
	.loc 34 141 0
	cmp	r0, #112
	beq	.L378
	bhi	.L379
	cmp	r0, #100
	beq	.L380
	cmp	r0, #108
	beq	.L381
	cmp	r0, #37
	beq	.L422
.LVL327:
.L409:
	.loc 34 191 0
	mvn	r0, #0
.LVL328:
.LBE4401:
.LBE4400:
	.loc 34 269 0
	add	sp, sp, #12
	.cfi_remember_state
	.cfi_def_cfa_offset 44
	@ sp needed
	ldmfd	sp!, {r4, r5, r6, r7, r8, r9, lr}
	.cfi_restore 14
	.cfi_restore 9
	.cfi_restore 8
	.cfi_restore 7
	.cfi_restore 6
	.cfi_restore 5
	.cfi_restore 4
	.cfi_def_cfa_offset 16
.LVL329:
	add	sp, sp, #16
	.cfi_restore 3
	.cfi_restore 2
	.cfi_restore 1
	.cfi_restore 0
	.cfi_def_cfa_offset 0
	bx	lr
.LVL330:
.L422:
	.cfi_restore_state
.LBB4424:
.LBB4421:
	.loc 34 145 0
	add	r4, r4, #1
.LVL331:
	.loc 34 144 0
	add	r7, r7, #1
.LVL332:
	.loc 34 143 0
	bl	zynq_uart_putchar
.LVL333:
	.loc 34 139 0
	ldrb	r0, [r4]	@ zero_extendqisi2
	.loc 34 230 0
	mov	r6, #0
.LVL334:
	.loc 34 139 0
	cmp	r0, #0
	bne	.L405
.L421:
	mov	r0, r7
.LVL335:
.LBE4421:
.LBE4424:
	.loc 34 269 0
	add	sp, sp, #12
	.cfi_remember_state
	.cfi_def_cfa_offset 44
	@ sp needed
	ldmfd	sp!, {r4, r5, r6, r7, r8, r9, lr}
	.cfi_restore 4
	.cfi_restore 5
	.cfi_restore 6
	.cfi_restore 7
	.cfi_restore 8
	.cfi_restore 9
	.cfi_restore 14
	.cfi_def_cfa_offset 16
.LVL336:
	add	sp, sp, #16
	.cfi_restore 0
	.cfi_restore 1
	.cfi_restore 2
	.cfi_restore 3
	.cfi_def_cfa_offset 0
	bx	lr
.LVL337:
.L377:
	.cfi_restore_state
.LBB4425:
.LBB4422:
	.loc 34 232 0
	cmp	r0, #37
	bne	.L416
.LVL338:
	.loc 34 235 0
	add	r4, r4, #1
.LVL339:
	.loc 34 234 0
	mov	r6, #1
	b	.L376
.LVL340:
.L379:
	.loc 34 141 0
	cmp	r0, #117
	beq	.L383
	cmp	r0, #120
	beq	.L384
	cmp	r0, #115
	bne	.L409
	.loc 34 185 0
	ldr	r8, [r5]
	add	r5, r5, #4
.LVL341:
.LBB4402:
.LBB4403:
	.loc 34 21 0
	ldrb	r0, [r8]	@ zero_extendqisi2
	cmp	r0, #0
	beq	.L408
	add	r6, r8, #1
.LVL342:
.L393:
	.loc 34 22 0
	bl	zynq_uart_putchar
.LVL343:
	rsb	r3, r8, r6
.LVL344:
	.loc 34 21 0
	ldrb	r0, [r6], #1	@ zero_extendqisi2
.LVL345:
	cmp	r0, #0
	bne	.L393
.LVL346:
.L392:
.LBE4403:
.LBE4402:
	.loc 34 185 0
	add	r7, r7, r3
.LVL347:
.L418:
	.loc 34 186 0
	add	r4, r4, #1
.LVL348:
	.loc 34 230 0
	mov	r6, #0
	b	.L376
.LVL349:
.L416:
	.loc 34 240 0
	add	r7, r7, #1
.LVL350:
	.loc 34 241 0
	add	r4, r4, #1
.LVL351:
	.loc 34 239 0
	bl	zynq_uart_putchar
.LVL352:
	b	.L376
.L380:
.LBB4405:
	.loc 34 149 0
	ldr	r6, [r5]
.LVL353:
	add	r5, r5, #4
.LVL354:
	.loc 34 151 0
	cmp	r6, #0
	blt	.L423
.L387:
	.loc 34 157 0
	mov	r0, r6
	mov	r1, #10
	bl	print_unsigned_long
.LVL355:
	.loc 34 158 0
	add	r4, r4, #1
.LVL356:
.LBE4405:
	.loc 34 230 0
	mov	r6, #0
.LVL357:
.LBB4406:
	.loc 34 157 0
	add	r7, r7, r0
.LVL358:
	b	.L376
.LVL359:
.L384:
.LBE4406:
	.loc 34 168 0
	ldr	r0, [r5]
	mov	r1, #16
	bl	print_unsigned_long
.LVL360:
	add	r5, r5, #4
.LVL361:
	.loc 34 169 0
	add	r4, r4, #1
.LVL362:
	.loc 34 230 0
	mov	r6, #0
.LVL363:
	.loc 34 168 0
	add	r7, r7, r0
.LVL364:
	b	.L376
.LVL365:
.L383:
	.loc 34 163 0
	ldr	r0, [r5]
	mov	r1, #10
	bl	print_unsigned_long
.LVL366:
	add	r5, r5, #4
.LVL367:
	.loc 34 164 0
	add	r4, r4, #1
.LVL368:
	.loc 34 230 0
	mov	r6, #0
.LVL369:
	.loc 34 163 0
	add	r7, r7, r0
.LVL370:
	b	.L376
.LVL371:
.L381:
	.loc 34 191 0
	ldrb	r3, [r4, #1]	@ zero_extendqisi2
	sub	r3, r3, #100
	cmp	r3, #20
	ldrls	pc, [pc, r3, asl #2]
	b	.L409
.L395:
	.word	.L394
	.word	.L409
	.word	.L409
	.word	.L409
	.word	.L409
	.word	.L409
	.word	.L409
	.word	.L409
	.word	.L396
	.word	.L409
	.word	.L409
	.word	.L409
	.word	.L409
	.word	.L409
	.word	.L409
	.word	.L409
	.word	.L409
	.word	.L397
	.word	.L409
	.word	.L409
	.word	.L398
.LVL372:
.L378:
.LBB4407:
	.loc 34 173 0
	ldr	r6, [r5]
.LVL373:
	add	r5, r5, #4
.LVL374:
	.loc 34 174 0
	cmp	r6, #0
	bne	.L388
	movw	r8, #:lower16:.LC1
	mov	r0, #40
	movt	r8, #:upper16:.LC1
.LVL375:
.L389:
.LBB4408:
.LBB4409:
	.loc 34 22 0
	bl	zynq_uart_putchar
.LVL376:
	.loc 34 21 0
	ldrb	r0, [r8, #1]!	@ zero_extendqisi2
	add	r6, r6, #1
.LVL377:
	cmp	r0, #0
	bne	.L389
.LBE4409:
.LBE4408:
	.loc 34 175 0
	add	r7, r7, r6
.LVL378:
	b	.L418
.LVL379:
.L388:
	movw	r9, #:lower16:.LC2
	.loc 34 174 0
	mov	r8, #0
	movt	r9, #:upper16:.LC2
	mov	r0, #48
.L391:
.LVL380:
.LBB4410:
.LBB4411:
	.loc 34 22 0
	bl	zynq_uart_putchar
.LVL381:
	.loc 34 21 0
	ldrb	r0, [r9, #1]!	@ zero_extendqisi2
	add	r8, r8, #1
.LVL382:
	cmp	r0, #0
	bne	.L391
.LVL383:
.LBE4411:
.LBE4410:
	.loc 34 178 0
	mov	r0, r6
	mov	r1, #16
	bl	print_unsigned_long
.LVL384:
	add	r0, r8, r0
	add	r7, r7, r0
.LVL385:
	b	.L418
.LVL386:
.L398:
.LBE4407:
	.loc 34 216 0
	ldr	r0, [r5]
	mov	r1, #16
	bl	print_unsigned_long
.LVL387:
	add	r5, r5, #4
.LVL388:
	.loc 34 217 0
	add	r4, r4, #2
.LVL389:
	.loc 34 230 0
	mov	r6, #0
.LVL390:
	.loc 34 216 0
	add	r7, r7, r0
.LVL391:
	b	.L376
.LVL392:
.L394:
.LBB4412:
	.loc 34 193 0
	ldr	r6, [r5]
.LVL393:
	add	r5, r5, #4
.LVL394:
	.loc 34 195 0
	cmp	r6, #0
	blt	.L424
.L399:
	.loc 34 201 0
	mov	r0, r6
	mov	r1, #10
	bl	print_unsigned_long
.LVL395:
	.loc 34 202 0
	add	r4, r4, #2
.LVL396:
.LBE4412:
	.loc 34 230 0
	mov	r6, #0
.LVL397:
.LBB4413:
	.loc 34 201 0
	add	r7, r7, r0
.LVL398:
	b	.L376
.LVL399:
.L396:
.LBE4413:
	.loc 34 206 0
	ldrb	r3, [r4, #2]	@ zero_extendqisi2
	cmp	r3, #120
	beq	.L425
.LVL400:
.L400:
	.loc 34 209 0
	add	r4, r4, #3
.LVL401:
	.loc 34 230 0
	mov	r6, #0
	b	.L376
.LVL402:
.L397:
	.loc 34 212 0
	ldr	r0, [r5]
	mov	r1, #10
	bl	print_unsigned_long
.LVL403:
	add	r5, r5, #4
.LVL404:
	.loc 34 213 0
	add	r4, r4, #2
.LVL405:
	.loc 34 230 0
	mov	r6, #0
.LVL406:
	.loc 34 212 0
	add	r7, r7, r0
.LVL407:
	b	.L376
.LVL408:
.L423:
.LBB4414:
	.loc 34 152 0
	mov	r0, #45
	.loc 34 153 0
	add	r7, r7, #1
.LVL409:
	.loc 34 154 0
	rsb	r6, r6, #0
.LVL410:
	.loc 34 152 0
	bl	zynq_uart_putchar
.LVL411:
	b	.L387
.LVL412:
.L406:
.LBE4414:
	.loc 34 133 0
	mov	r0, r4
.LVL413:
.LBE4422:
.LBE4425:
	.loc 34 269 0
	add	sp, sp, #12
	.cfi_remember_state
	.cfi_def_cfa_offset 44
	@ sp needed
	ldmfd	sp!, {r4, r5, r6, r7, r8, r9, lr}
	.cfi_restore 4
	.cfi_restore 5
	.cfi_restore 6
	.cfi_restore 7
	.cfi_restore 8
	.cfi_restore 9
	.cfi_restore 14
	.cfi_def_cfa_offset 16
.LVL414:
	add	sp, sp, #16
	.cfi_restore 0
	.cfi_restore 1
	.cfi_restore 2
	.cfi_restore 3
	.cfi_def_cfa_offset 0
.LVL415:
	bx	lr
.LVL416:
.L408:
	.cfi_restore_state
.LBB4426:
.LBB4423:
.LBB4415:
.LBB4404:
	.loc 34 21 0
	mov	r3, r0
	b	.L392
.LVL417:
.L425:
.LBE4404:
.LBE4415:
	.loc 34 207 0
	add	r3, r5, #7
	bic	r3, r3, #7
	ldr	r0, [r3, #4]
	add	r5, r3, #8
.LVL418:
	ldr	r9, [r3]
.LVL419:
.LBB4416:
.LBB4417:
	.loc 34 109 0
	cmp	r0, #0
	.loc 34 96 0
	moveq	r6, r0
.LVL420:
	.loc 34 109 0
	bne	.L426
.LVL421:
.L401:
	.loc 34 121 0
	mov	r0, r9
	mov	r1, #16
	bl	print_unsigned_long
.LVL422:
	add	r0, r6, r0
.LVL423:
.LBE4417:
.LBE4416:
	.loc 34 207 0
	add	r7, r7, r0
.LVL424:
	b	.L400
.LVL425:
.L424:
.LBB4419:
	.loc 34 196 0
	mov	r0, #45
	.loc 34 197 0
	add	r7, r7, #1
.LVL426:
	.loc 34 198 0
	rsb	r6, r6, #0
.LVL427:
	.loc 34 196 0
	bl	zynq_uart_putchar
.LVL428:
	b	.L399
.LVL429:
.L426:
.LBE4419:
.LBB4420:
.LBB4418:
	.loc 34 110 0
	mov	r1, #16
	bl	print_unsigned_long
.LVL430:
	.loc 34 113 0
	tst	r9, #-268435456
	.loc 34 110 0
	mov	r6, r0
.LVL431:
	.loc 34 113 0
	bne	.L401
	mov	r8, #-268435456
.LVL432:
.L402:
	.loc 34 116 0
	mov	r8, r8, lsr #4
.LVL433:
	.loc 34 114 0
	mov	r0, #48
	.loc 34 115 0
	add	r6, r6, #1
.LVL434:
	.loc 34 114 0
	bl	zynq_uart_putchar
.LVL435:
	.loc 34 113 0
	tst	r9, r8
	beq	.L402
	b	.L401
.LBE4418:
.LBE4420:
.LBE4423:
.LBE4426:
	.cfi_endproc
.LFE556:
	.size	kprintf, .-kprintf
	.align	2
	.global	checkValidIPCBuffer
	.type	checkValidIPCBuffer, %function
checkValidIPCBuffer:
.LFB344:
	.loc 14 755 0
	.cfi_startproc
	@ args = 0, pretend = 0, frame = 8
	@ frame_needed = 0, uses_anonymous_args = 0
.LVL436:
	stmfd	sp!, {r4, lr}
	.cfi_def_cfa_offset 8
	.cfi_offset 4, -8
	.cfi_offset 14, -4
	sub	sp, sp, #16
	.cfi_def_cfa_offset 24
	.loc 14 755 0
	add	r3, sp, #16
	mov	r4, r0
	stmdb	r3, {r1, r2}
	ldr	r3, [sp, #8]
.LVL437:
.LBB4442:
.LBB4443:
	.loc 28 1035 0
	and	r2, r3, #14
	cmp	r2, #14
	.loc 28 1037 0
	uxtbeq	r3, r3
.LVL438:
	.loc 28 1036 0
	andne	r3, r3, #15
.LBE4443:
.LBE4442:
	.loc 14 756 0
	bic	r3, r3, #2
	cmp	r3, #1
	bne	.L436
	.loc 14 763 0
	ubfx	r0, r0, #0, #9
.LVL439:
	cmp	r0, #0
	bne	.L437
.L431:
	.loc 14 771 0
	add	sp, sp, #16
	.cfi_remember_state
	.cfi_def_cfa_offset 8
	@ sp needed
	ldmfd	sp!, {r4, pc}
.LVL440:
.L436:
	.cfi_restore_state
	.loc 14 758 0
	movw	r3, #:lower16:ksCurThread
	movw	r0, #:lower16:.LC3
.LVL441:
	movt	r3, #:upper16:ksCurThread
	movw	r2, #758
	ldr	ip, [r3]
.LVL442:
	movt	r0, #:upper16:.LC3
	ldr	r1, .L438
	add	lr, ip, #140
	mov	r3, ip
	str	lr, [sp]
	ldr	ip, [ip, #68]
.LVL443:
	str	ip, [sp, #4]
	bl	kprintf
.LVL444:
	movw	r0, #:lower16:.LC4
	movt	r0, #:upper16:.LC4
	bl	kprintf
.LVL445:
	movw	r0, #:lower16:.LC5
	movt	r0, #:upper16:.LC5
	bl	kprintf
.LVL446:
	.loc 14 759 0
	movw	r3, #:lower16:current_syscall_error
	mov	r2, #3
	movt	r3, #:upper16:current_syscall_error
	.loc 14 760 0
	mov	r0, r2
	.loc 14 759 0
	str	r2, [r3, #24]
	.loc 14 771 0
	add	sp, sp, #16
	.cfi_remember_state
	.cfi_def_cfa_offset 8
	@ sp needed
	ldmfd	sp!, {r4, pc}
.LVL447:
.L437:
	.cfi_restore_state
.LBB4444:
.LBB4445:
	.loc 14 764 0
	movw	r3, #:lower16:ksCurThread
	movw	r0, #:lower16:.LC3
	movt	r3, #:upper16:ksCurThread
	movw	r2, #765
	ldr	ip, [r3]
.LVL448:
	movt	r0, #:upper16:.LC3
	ldr	r1, .L438
	add	lr, ip, #140
	mov	r3, ip
	str	lr, [sp]
	ldr	ip, [ip, #68]
.LVL449:
	str	ip, [sp, #4]
	bl	kprintf
.LVL450:
	movw	r0, #:lower16:.LC6
	mov	r1, r4
	movt	r0, #:upper16:.LC6
	bl	kprintf
.LVL451:
	movw	r0, #:lower16:.LC5
	movt	r0, #:upper16:.LC5
	bl	kprintf
.LVL452:
	.loc 14 766 0
	movw	r3, #:lower16:current_syscall_error
	mov	r2, #5
	movt	r3, #:upper16:current_syscall_error
	mov	r0, #3
	str	r2, [r3, #24]
	b	.L431
.L439:
	.align	2
.L438:
	.word	.LANCHOR4+16
.LBE4445:
.LBE4444:
	.cfi_endproc
.LFE344:
	.size	checkValidIPCBuffer, .-checkValidIPCBuffer
	.align	2
	.global	kernelPrefetchAbort
	.type	kernelPrefetchAbort, %function
kernelPrefetchAbort:
.LFB380:
	.loc 14 2309 0
	.cfi_startproc
	@ args = 0, pretend = 0, frame = 0
	@ frame_needed = 0, uses_anonymous_args = 0
.LVL453:
	stmfd	sp!, {r3, r4, r5, lr}
	.cfi_def_cfa_offset 16
	.cfi_offset 3, -16
	.cfi_offset 4, -12
	.cfi_offset 5, -8
	.cfi_offset 14, -4
	.loc 14 2309 0
	mov	r5, r0
.LBB4446:
.LBB4447:
	.loc 4 308 0
@ 308 "/home/neelesh/research/seL4-tutorials-manifest/kernel/include/arch/arm/arch/machine.h" 1
	mrc p15, 0, r4, c5, c0, 1
@ 0 "" 2
.LBE4447:
.LBE4446:
	.loc 14 2312 0
	movw	r0, #:lower16:.LC7
.LVL454:
	movt	r0, #:upper16:.LC7
	bl	kprintf
.LVL455:
	.loc 14 2313 0
	movw	r0, #:lower16:.LC8
	mov	r1, r5
	movt	r0, #:upper16:.LC8
	bl	kprintf
.LVL456:
	.loc 14 2314 0
	movw	r0, #:lower16:.LC9
	mov	r1, r4
	movt	r0, #:upper16:.LC9
	bl	kprintf
.LVL457:
	.loc 14 2316 0
	bl	halt
.LVL458:
	.cfi_endproc
.LFE380:
	.size	kernelPrefetchAbort, .-kernelPrefetchAbort
	.align	2
	.global	kernelDataAbort
	.type	kernelDataAbort, %function
kernelDataAbort:
.LFB381:
	.loc 14 2321 0
	.cfi_startproc
	@ args = 0, pretend = 0, frame = 0
	@ frame_needed = 0, uses_anonymous_args = 0
.LVL459:
	stmfd	sp!, {r4, r5, r6, lr}
	.cfi_def_cfa_offset 16
	.cfi_offset 4, -16
	.cfi_offset 5, -12
	.cfi_offset 6, -8
	.cfi_offset 14, -4
	.loc 14 2321 0
	mov	r6, r0
.LBB4448:
.LBB4449:
	.loc 4 316 0
@ 316 "/home/neelesh/research/seL4-tutorials-manifest/kernel/include/arch/arm/arch/machine.h" 1
	mrc p15, 0, r4, c5, c0, 0
@ 0 "" 2
.LBE4449:
.LBE4448:
.LBB4450:
.LBB4451:
	.loc 4 324 0
@ 324 "/home/neelesh/research/seL4-tutorials-manifest/kernel/include/arch/arm/arch/machine.h" 1
	mrc p15, 0, r5, c6, c0, 0
@ 0 "" 2
.LBE4451:
.LBE4450:
	.loc 14 2325 0
	movw	r0, #:lower16:.LC10
.LVL460:
	movt	r0, #:upper16:.LC10
	bl	kprintf
.LVL461:
	.loc 14 2326 0
	movw	r0, #:lower16:.LC8
	mov	r1, r6
	movt	r0, #:upper16:.LC8
	bl	kprintf
.LVL462:
	.loc 14 2327 0
	movw	r0, #:lower16:.LC11
	mov	r1, r5
	mov	r2, r4
	movt	r0, #:upper16:.LC11
	bl	kprintf
.LVL463:
	.loc 14 2329 0
	bl	halt
.LVL464:
	.cfi_endproc
.LFE381:
	.size	kernelDataAbort, .-kernelDataAbort
	.align	2
	.global	debug_init
	.type	debug_init, %function
debug_init:
.LFB414:
	.loc 16 27 0
	.cfi_startproc
	@ args = 0, pretend = 0, frame = 0
	@ frame_needed = 0, uses_anonymous_args = 0
	stmfd	sp!, {r4, lr}
	.cfi_def_cfa_offset 8
	.cfi_offset 4, -8
	.cfi_offset 14, -4
.LBB4460:
.LBB4461:
	.loc 17 70 0
@ 70 "/home/neelesh/research/seL4-tutorials-manifest/kernel/include/arch/arm/arch/machine/debug.h" 1
	mrc p14, 0, r3, c0, c0, 0
@ 0 "" 2
.LBE4461:
.LBE4460:
	.loc 16 33 0
	movw	r4, #:lower16:n_breakpoints
	ubfx	ip, r3, #24, #4
	.loc 16 38 0
	movw	r0, #:lower16:.LC12
	.loc 16 33 0
	add	ip, ip, #1
	.loc 16 38 0
	and	r2, r3, #15
	.loc 16 33 0
	movt	r4, #:upper16:n_breakpoints
	.loc 16 38 0
	ubfx	r1, r3, #4, #4
	movt	r0, #:upper16:.LC12
	ubfx	r3, r3, #16, #4
	.loc 16 33 0
	str	ip, [r4]
.LVL465:
	.loc 16 38 0
	bl	kprintf
.LVL466:
	.loc 16 40 0
	movw	r0, #:lower16:.LC13
	ldr	r1, [r4]
	movt	r0, #:upper16:.LC13
	bl	kprintf
.LVL467:
.LBB4462:
.LBB4463:
	.loc 17 105 0
	mov	r3, #32768
@ 105 "/home/neelesh/research/seL4-tutorials-manifest/kernel/include/arch/arm/arch/machine/debug.h" 1
	mcr p14, 0, r3, c0, c1, 0
@ 0 "" 2
.LVL468:
.LBE4463:
.LBE4462:
	.loc 16 46 0
	ldr	r0, [r4]
	cmp	r0, #0
	movwne	r2, #:lower16:breakpoints
	movne	r3, #0
	movtne	r2, #:upper16:breakpoints
	.loc 16 47 0
	movne	r1, r3
	.loc 16 46 0
	beq	.L455
.LVL469:
.L454:
	.loc 16 47 0 discriminator 3
	str	r1, [r2, #4]
.LVL470:
.LBB4464:
.LBB4465:
	.loc 17 238 0 discriminator 3
	cmp	r3, #5
	ldrls	pc, [pc, r3, asl #2]
	b	.L446
.L448:
	.word	.L447
	.word	.L449
	.word	.L450
	.word	.L451
	.word	.L452
	.word	.L453
.L453:
	.loc 17 255 0
@ 255 "/home/neelesh/research/seL4-tutorials-manifest/kernel/include/arch/arm/arch/machine/debug.h" 1
	mcr p14, 0, r1, c0, c5, 5
@ 0 "" 2
.LVL471:
.L446:
.LBE4465:
.LBE4464:
	.loc 16 46 0 discriminator 3
	add	r3, r3, #1
.LVL472:
	add	r2, r2, #8
	cmp	r3, r0
	bne	.L454
.LVL473:
.L455:
.LBB4467:
.LBB4468:
	.loc 17 132 0
	mov	r3, #0
@ 132 "/home/neelesh/research/seL4-tutorials-manifest/kernel/include/arch/arm/arch/machine/debug.h" 1
	mcr p14, 0, r3, c0, c7, 0
@ 0 "" 2
	ldmfd	sp!, {r4, pc}
.LVL474:
.L449:
.LBE4468:
.LBE4467:
.LBB4469:
.LBB4466:
	.loc 17 243 0
@ 243 "/home/neelesh/research/seL4-tutorials-manifest/kernel/include/arch/arm/arch/machine/debug.h" 1
	mcr p14, 0, r1, c0, c1, 5
@ 0 "" 2
	b	.L446
.L447:
.LVL475:
	.loc 17 240 0
@ 240 "/home/neelesh/research/seL4-tutorials-manifest/kernel/include/arch/arm/arch/machine/debug.h" 1
	mcr p14, 0, r1, c0, c0, 5
@ 0 "" 2
	b	.L446
.LVL476:
.L451:
	.loc 17 249 0
@ 249 "/home/neelesh/research/seL4-tutorials-manifest/kernel/include/arch/arm/arch/machine/debug.h" 1
	mcr p14, 0, r1, c0, c3, 5
@ 0 "" 2
	b	.L446
.L450:
	.loc 17 246 0
@ 246 "/home/neelesh/research/seL4-tutorials-manifest/kernel/include/arch/arm/arch/machine/debug.h" 1
	mcr p14, 0, r1, c0, c2, 5
@ 0 "" 2
	b	.L446
.L452:
	.loc 17 252 0
@ 252 "/home/neelesh/research/seL4-tutorials-manifest/kernel/include/arch/arm/arch/machine/debug.h" 1
	mcr p14, 0, r1, c0, c4, 5
@ 0 "" 2
	b	.L446
.LBE4466:
.LBE4469:
	.cfi_endproc
.LFE414:
	.size	debug_init, .-debug_init
	.align	2
	.global	software_breakpoint
	.type	software_breakpoint, %function
software_breakpoint:
.LFB415:
	.loc 16 55 0
	.cfi_startproc
	@ args = 0, pretend = 0, frame = 0
	@ frame_needed = 0, uses_anonymous_args = 0
.LVL477:
	stmfd	sp!, {r4, r5, r6, lr}
	.cfi_def_cfa_offset 16
	.cfi_offset 4, -16
	.cfi_offset 5, -12
	.cfi_offset 6, -8
	.cfi_offset 14, -4
	.loc 16 55 0
	mov	r6, r1
	mov	r1, r0
.LVL478:
	.loc 16 58 0
	movw	r0, #:lower16:.LC14
.LVL479:
	movt	r0, #:upper16:.LC14
	sub	r5, r6, #4
	.loc 16 59 0
	mov	r4, #0
	.loc 16 58 0
	bl	kprintf
.LVL480:
.L460:
	.loc 16 60 0 discriminator 3
	movw	r0, #:lower16:.LC15
	mov	r1, r4
	movt	r0, #:upper16:.LC15
	.loc 16 59 0 discriminator 3
	add	r4, r4, #1
.LVL481:
	.loc 16 60 0 discriminator 3
	ldr	r2, [r5, #4]!
	bl	kprintf
.LVL482:
	.loc 16 59 0 discriminator 3
	cmp	r4, #10
	bne	.L460
	add	r5, r6, #36
.L461:
	.loc 16 63 0 discriminator 3
	movw	r0, #:lower16:.LC16
	mov	r1, r4
	movt	r0, #:upper16:.LC16
	.loc 16 62 0 discriminator 3
	add	r4, r4, #1
.LVL483:
	.loc 16 63 0 discriminator 3
	ldr	r2, [r5, #4]!
	bl	kprintf
.LVL484:
	.loc 16 62 0 discriminator 3
	cmp	r4, #15
	bne	.L461
	.loc 16 65 0
	movw	r0, #:lower16:.LC17
	ldr	r1, [r6, #60]
	movt	r0, #:upper16:.LC17
	movw	r5, #:lower16:ksCurThread
	bl	kprintf
.LVL485:
	.loc 16 66 0
	movw	r0, #:lower16:.LC18
	ldr	r1, [r6, #64]
	movt	r0, #:upper16:.LC18
	movt	r5, #:upper16:ksCurThread
	bl	kprintf
.LVL486:
	.loc 16 68 0
	movw	r0, #:lower16:.LC19
	.loc 16 69 0
	mov	r4, #0
.LVL487:
	.loc 16 68 0
	movt	r0, #:upper16:.LC19
	bl	kprintf
.LVL488:
.L462:
	.loc 16 70 0 discriminator 3
	ldr	r3, [r5]
	movw	r0, #:lower16:.LC15
	mov	r1, r4
	movt	r0, #:upper16:.LC15
	ldr	r2, [r3, r4, asl #2]
	.loc 16 69 0 discriminator 3
	add	r4, r4, #1
.LVL489:
	.loc 16 70 0 discriminator 3
	bl	kprintf
.LVL490:
	.loc 16 69 0 discriminator 3
	cmp	r4, #10
	bne	.L462
.LVL491:
.L463:
	.loc 16 74 0 discriminator 3
	ldr	r3, [r5]
	movw	r0, #:lower16:.LC16
	mov	r1, r4
	movt	r0, #:upper16:.LC16
	movw	r6, #:lower16:ksCurThread
	ldr	r2, [r3, r4, asl #2]
	.loc 16 73 0 discriminator 3
	add	r4, r4, #1
.LVL492:
	.loc 16 74 0 discriminator 3
	bl	kprintf
.LVL493:
	.loc 16 73 0 discriminator 3
	cmp	r4, #15
	.loc 16 74 0 discriminator 3
	movt	r6, #:upper16:ksCurThread
	.loc 16 73 0 discriminator 3
	bne	.L463
	.loc 16 77 0
	ldr	r3, [r6]
	movw	r0, #:lower16:.LC17
	movt	r0, #:upper16:.LC17
	ldr	r1, [r3, #60]
	bl	kprintf
.LVL494:
	.loc 16 78 0
	ldr	r3, [r6]
	movw	r0, #:lower16:.LC18
	movt	r0, #:upper16:.LC18
	.loc 16 79 0
	ldmfd	sp!, {r4, r5, r6, lr}
	.cfi_restore 14
	.cfi_restore 6
	.cfi_restore 5
	.cfi_restore 4
	.cfi_def_cfa_offset 0
.LVL495:
	.loc 16 78 0
	ldr	r1, [r3, #64]
	b	kprintf
.LVL496:
	.cfi_endproc
.LFE415:
	.size	software_breakpoint, .-software_breakpoint
	.align	2
	.global	breakpoint_multiplexer
	.type	breakpoint_multiplexer, %function
breakpoint_multiplexer:
.LFB416:
	.loc 16 83 0
	.cfi_startproc
	@ args = 0, pretend = 0, frame = 0
	@ frame_needed = 0, uses_anonymous_args = 0
.LVL497:
	.loc 16 86 0
	movw	r3, #:lower16:n_breakpoints
	.loc 16 83 0
	stmfd	sp!, {r4, r5, r6, lr}
	.cfi_def_cfa_offset 16
	.cfi_offset 4, -16
	.cfi_offset 5, -12
	.cfi_offset 6, -8
	.cfi_offset 14, -4
	.loc 16 86 0
	movt	r3, #:upper16:n_breakpoints
	.loc 16 83 0
	mov	r5, r0
	.loc 16 86 0
	ldr	r4, [r3]
	cmp	r4, #0
	beq	.L470
	movw	ip, #:lower16:breakpoints
	mov	r3, #0
	movt	ip, #:upper16:breakpoints
	mov	r2, ip
	b	.L471
.LVL498:
.L472:
	.loc 16 87 0
	add	r3, r3, #1
.LVL499:
	add	r2, r2, #8
	.loc 16 86 0
	cmp	r3, r4
	beq	.L470
.LVL500:
.L471:
	.loc 16 86 0 is_stmt 0 discriminator 2
	ldr	lr, [ip, r3, asl #3]
	add	r6, ip, r3, asl #3
	cmp	lr, r5
	bne	.L472
	.loc 16 86 0 discriminator 3
	ldr	lr, [r2, #4]
	cmp	lr, #0
	beq	.L472
	.loc 16 89 0 is_stmt 1
	cmp	r3, r4
	beq	.L470
	.loc 16 92 0
	ldr	r3, [r6, #4]
.LVL501:
	mov	r0, r1
.LVL502:
	.loc 16 94 0
	ldmfd	sp!, {r4, r5, r6, lr}
	.cfi_remember_state
	.cfi_restore 14
	.cfi_restore 6
	.cfi_restore 5
	.cfi_restore 4
	.cfi_def_cfa_offset 0
.LVL503:
	.loc 16 92 0
	bx	r3	@ indirect register sibling call
.LVL504:
.L470:
	.cfi_restore_state
	.loc 16 90 0
	movw	r0, #:lower16:.LC20
.LVL505:
	mov	r1, r5
.LVL506:
	movt	r0, #:upper16:.LC20
	.loc 16 94 0
	ldmfd	sp!, {r4, r5, r6, lr}
	.cfi_restore 14
	.cfi_restore 6
	.cfi_restore 5
	.cfi_restore 4
	.cfi_def_cfa_offset 0
.LVL507:
	.loc 16 90 0
	b	kprintf
.LVL508:
	.cfi_endproc
.LFE416:
	.size	breakpoint_multiplexer, .-breakpoint_multiplexer
	.align	2
	.global	_fail
	.type	_fail, %function
_fail:
.LFB471:
	.file 35 "/home/neelesh/research/seL4-tutorials-manifest/kernel/src/assert.c"
	.loc 35 21 0
	.cfi_startproc
	@ Volatile: function does not return.
	@ args = 0, pretend = 0, frame = 0
	@ frame_needed = 0, uses_anonymous_args = 0
.LVL509:
	str	lr, [sp, #-4]!
	.cfi_def_cfa_offset 4
	.cfi_offset 14, -4
	sub	sp, sp, #12
	.cfi_def_cfa_offset 16
	.loc 35 22 0
	str	r0, [sp]
	movw	r0, #:lower16:.LC21
.LVL510:
	movt	r0, #:upper16:.LC21
	bl	kprintf
.LVL511:
	.loc 35 29 0
	bl	halt
.LVL512:
	.cfi_endproc
.LFE471:
	.size	_fail, .-_fail
	.align	2
	.type	APFromVMRights.part.56, %function
APFromVMRights.part.56:
.LFB747:
	.loc 14 72 0
	.cfi_startproc
	@ Volatile: function does not return.
	@ args = 0, pretend = 0, frame = 0
	@ frame_needed = 0, uses_anonymous_args = 0
.LVL513:
	.loc 14 88 0
	movw	r0, #:lower16:.LC22
	movw	r1, #:lower16:.LC23
	.loc 14 72 0
	stmfd	sp!, {r3, lr}
	.cfi_def_cfa_offset 8
	.cfi_offset 3, -8
	.cfi_offset 14, -4
	.loc 14 88 0
	movt	r0, #:upper16:.LC22
	movt	r1, #:upper16:.LC23
	mov	r2, #88
	ldr	r3, .L486
	bl	_fail
.LVL514:
.L487:
	.align	2
.L486:
	.word	.LANCHOR4+36
	.cfi_endproc
.LFE747:
	.size	APFromVMRights.part.56, .-APFromVMRights.part.56
	.align	2
	.type	APFromVMRights, %function
APFromVMRights:
.LFB319:
	.loc 14 73 0
	.cfi_startproc
	@ args = 0, pretend = 0, frame = 0
	@ frame_needed = 0, uses_anonymous_args = 0
.LVL515:
	.loc 14 74 0
	cmp	r0, #3
	ldrls	pc, [pc, r0, asl #2]
	b	.L489
.L491:
	.word	.L490
	.word	.L492
	.word	.L495
	.word	.L494
.L495:
	.loc 14 82 0
	mov	r0, #2
.LVL516:
	.loc 14 90 0
	bx	lr
.LVL517:
.L492:
	.loc 14 79 0
	mov	r0, #1
.LVL518:
	bx	lr
.LVL519:
.L490:
	.loc 14 76 0
	mov	r0, #0
.LVL520:
	bx	lr
.LVL521:
.L494:
	.loc 14 85 0
	mov	r0, #3
.LVL522:
	bx	lr
.LVL523:
.L489:
	.loc 14 73 0
	stmfd	sp!, {r3, lr}
	bl	APFromVMRights.part.56
.LVL524:
	.cfi_endproc
.LFE319:
	.size	APFromVMRights, .-APFromVMRights
	.align	2
	.global	Arch_getObjectSize
	.type	Arch_getObjectSize, %function
Arch_getObjectSize:
.LFB461:
	.loc 23 343 0
	.cfi_startproc
	@ args = 0, pretend = 0, frame = 0
	@ frame_needed = 0, uses_anonymous_args = 0
.LVL525:
	.loc 23 344 0
	sub	r0, r0, #5
.LVL526:
	cmp	r0, #5
	ldrls	pc, [pc, r0, asl #2]
	b	.L498
.L500:
	.word	.L499
	.word	.L501
	.word	.L506
	.word	.L503
	.word	.L504
	.word	.L505
.L506:
	.loc 23 350 0
	mov	r0, #20
.LVL527:
	.loc 23 361 0
	bx	lr
.L503:
	.loc 23 352 0
	mov	r0, #24
	bx	lr
.L504:
	.loc 23 354 0
	mov	r0, #10
	bx	lr
.L505:
	.loc 23 356 0
	mov	r0, #14
	bx	lr
.L499:
	.loc 23 346 0
	mov	r0, #12
	bx	lr
.L501:
	.loc 23 348 0
	mov	r0, #16
	bx	lr
.L498:
.LVL528:
.LBB4472:
.LBB4473:
	.loc 23 358 0
	movw	r0, #:lower16:.LC24
	movw	r1, #:lower16:.LC25
.LBE4473:
.LBE4472:
	.loc 23 343 0
	stmfd	sp!, {r3, lr}
.LBB4475:
.LBB4474:
	.loc 23 358 0
	movt	r0, #:upper16:.LC24
	movt	r1, #:upper16:.LC25
	movw	r2, #358
	ldr	r3, .L508
	bl	_fail
.LVL529:
.L509:
	.align	2
.L508:
	.word	.LANCHOR4+52
.LBE4474:
.LBE4475:
	.cfi_endproc
.LFE461:
	.size	Arch_getObjectSize, .-Arch_getObjectSize
	.align	2
	.global	getObjectSize
	.type	getObjectSize, %function
getObjectSize:
.LFB622:
	.file 36 "/home/neelesh/research/seL4-tutorials-manifest/kernel/src/object/objecttype.c"
	.loc 36 34 0
	.cfi_startproc
	@ args = 0, pretend = 0, frame = 0
	@ frame_needed = 0, uses_anonymous_args = 0
	@ link register save eliminated.
.LVL530:
	.loc 36 35 0
	cmp	r0, #4
	bhi	.L518
	.loc 36 38 0
	sub	r3, r0, #1
	cmp	r3, #3
	ldrls	pc, [pc, r3, asl #2]
	b	.L512
.L514:
	.word	.L517
	.word	.L515
	.word	.L515
	.word	.L516
.L515:
	.loc 36 42 0
	mov	r0, #4
.LVL531:
	bx	lr
.LVL532:
.L518:
	.loc 36 36 0
	b	Arch_getObjectSize
.LVL533:
.L517:
	.loc 36 40 0
	mov	r0, #9
.LVL534:
	.loc 36 54 0
	bx	lr
.LVL535:
.L512:
	.loc 36 48 0
	mov	r0, r1
.LVL536:
	bx	lr
.LVL537:
.L516:
	.loc 36 46 0
	add	r0, r1, #4
.LVL538:
	bx	lr
	.cfi_endproc
.LFE622:
	.size	getObjectSize, .-getObjectSize
	.align	2
	.type	pageBitsForSize, %function
pageBitsForSize:
.LFB215:
	.file 37 "/home/neelesh/research/seL4-tutorials-manifest/kernel/include/arch/arm/arch/machine/hardware.h"
	.loc 37 112 0
	.cfi_startproc
	@ args = 0, pretend = 0, frame = 0
	@ frame_needed = 0, uses_anonymous_args = 0
.LVL539:
	.loc 37 113 0
	cmp	r0, #3
	ldrls	pc, [pc, r0, asl #2]
	b	.L520
.L522:
	.word	.L521
	.word	.L523
	.word	.L526
	.word	.L525
.L526:
	.loc 37 121 0
	mov	r0, #20
.LVL540:
	.loc 37 129 0
	bx	lr
.LVL541:
.L523:
	.loc 37 118 0
	mov	r0, #16
.LVL542:
	bx	lr
.LVL543:
.L521:
	.loc 37 115 0
	mov	r0, #12
.LVL544:
	bx	lr
.LVL545:
.L525:
	.loc 37 124 0
	mov	r0, #24
.LVL546:
	bx	lr
.LVL547:
.L520:
.LBB4480:
.LBB4481:
	.loc 37 127 0
	movw	r0, #:lower16:.LC26
.LVL548:
	movw	r1, #:lower16:.LC27
.LBE4481:
.LBE4480:
	.loc 37 112 0
	stmfd	sp!, {r3, lr}
.LBB4483:
.LBB4482:
	.loc 37 127 0
	movt	r0, #:upper16:.LC26
	movt	r1, #:upper16:.LC27
	mov	r2, #127
	ldr	r3, .L528
	bl	_fail
.LVL549:
.L529:
	.align	2
.L528:
	.word	.LANCHOR4+72
.LBE4482:
.LBE4483:
	.cfi_endproc
.LFE215:
	.size	pageBitsForSize, .-pageBitsForSize
	.align	2
	.global	_assert_fail
	.type	_assert_fail, %function
_assert_fail:
.LFB472:
	.loc 35 37 0
	.cfi_startproc
	@ Volatile: function does not return.
	@ args = 0, pretend = 0, frame = 0
	@ frame_needed = 0, uses_anonymous_args = 0
.LVL550:
	str	lr, [sp, #-4]!
	.cfi_def_cfa_offset 4
	.cfi_offset 14, -4
	mov	ip, r2
	mov	lr, r1
	sub	sp, sp, #12
	.cfi_def_cfa_offset 16
	.loc 35 37 0
	mov	r4, r0
	.loc 35 38 0
	movw	r0, #:lower16:.LC28
.LVL551:
	mov	r1, r4
.LVL552:
	mov	r2, lr
.LVL553:
	str	r3, [sp]
	movt	r0, #:upper16:.LC28
	mov	r3, ip
.LVL554:
	bl	kprintf
.LVL555:
	.loc 35 44 0
	bl	halt
.LVL556:
	.cfi_endproc
.LFE472:
	.size	_assert_fail, .-_assert_fail
	.section	.text.unlikely,"ax",%progbits
	.align	2
	.type	cap_thread_cap_get_capTCBPtr.isra.59.part.60, %function
cap_thread_cap_get_capTCBPtr.isra.59.part.60:
.LFB751:
	.loc 28 1606 0
	.cfi_startproc
	@ Volatile: function does not return.
	@ args = 0, pretend = 0, frame = 0
	@ frame_needed = 0, uses_anonymous_args = 0
	.loc 28 1608 0
	movw	r0, #:lower16:.LC29
	movw	r1, #:lower16:.LC30
	.loc 28 1606 0
	stmfd	sp!, {r3, lr}
	.cfi_def_cfa_offset 8
	.cfi_offset 3, -8
	.cfi_offset 14, -4
	.loc 28 1608 0
	movt	r0, #:upper16:.LC29
	movt	r1, #:upper16:.LC30
	movw	r2, #1609
	ldr	r3, .L534
	bl	_assert_fail
.LVL557:
.L535:
	.align	2
.L534:
	.word	.LANCHOR4+88
	.cfi_endproc
.LFE751:
	.size	cap_thread_cap_get_capTCBPtr.isra.59.part.60, .-cap_thread_cap_get_capTCBPtr.isra.59.part.60
	.align	2
	.type	cap_reply_cap_get_capReplyMaster.isra.63.part.64, %function
cap_reply_cap_get_capReplyMaster.isra.63.part.64:
.LFB755:
	.loc 28 1469 0
	.cfi_startproc
	@ Volatile: function does not return.
	@ args = 0, pretend = 0, frame = 0
	@ frame_needed = 0, uses_anonymous_args = 0
	.loc 28 1471 0
	movw	r0, #:lower16:.LC31
	movw	r1, #:lower16:.LC30
	.loc 28 1469 0
	stmfd	sp!, {r3, lr}
	.cfi_def_cfa_offset 8
	.cfi_offset 3, -8
	.cfi_offset 14, -4
	.loc 28 1471 0
	movt	r0, #:upper16:.LC31
	movt	r1, #:upper16:.LC30
	mov	r2, #1472
	ldr	r3, .L538
	bl	_assert_fail
.LVL558:
.L539:
	.align	2
.L538:
	.word	.LANCHOR4+120
	.cfi_endproc
.LFE755:
	.size	cap_reply_cap_get_capReplyMaster.isra.63.part.64, .-cap_reply_cap_get_capReplyMaster.isra.63.part.64
	.text
	.align	2
	.type	cap_reply_cap_get_capTCBPtr.isra.65.part.66, %function
cap_reply_cap_get_capTCBPtr.isra.65.part.66:
.LFB757:
	.loc 28 1455 0
	.cfi_startproc
	@ Volatile: function does not return.
	@ args = 0, pretend = 0, frame = 0
	@ frame_needed = 0, uses_anonymous_args = 0
	.loc 28 1457 0
	movw	r0, #:lower16:.LC31
	movw	r1, #:lower16:.LC30
	.loc 28 1455 0
	stmfd	sp!, {r3, lr}
	.cfi_def_cfa_offset 8
	.cfi_offset 3, -8
	.cfi_offset 14, -4
	.loc 28 1457 0
	movt	r0, #:upper16:.LC31
	movt	r1, #:upper16:.LC30
	movw	r2, #1458
	ldr	r3, .L542
	bl	_assert_fail
.LVL559:
.L543:
	.align	2
.L542:
	.word	.LANCHOR4+156
	.cfi_endproc
.LFE757:
	.size	cap_reply_cap_get_capTCBPtr.isra.65.part.66, .-cap_reply_cap_get_capTCBPtr.isra.65.part.66
	.align	2
	.type	cap_endpoint_cap_get_capCanReceive.part.67, %function
cap_endpoint_cap_get_capCanReceive.part.67:
.LFB758:
	.loc 28 1223 0
	.cfi_startproc
	@ Volatile: function does not return.
	@ args = 0, pretend = 0, frame = 0
	@ frame_needed = 0, uses_anonymous_args = 0
	.loc 28 1225 0
	movw	r0, #:lower16:.LC32
	movw	r1, #:lower16:.LC30
	.loc 28 1223 0
	stmfd	sp!, {r3, lr}
	.cfi_def_cfa_offset 8
	.cfi_offset 3, -8
	.cfi_offset 14, -4
	.loc 28 1225 0
	movt	r0, #:upper16:.LC32
	movt	r1, #:upper16:.LC30
	movw	r2, #1226
	ldr	r3, .L546
	bl	_assert_fail
.LVL560:
.L547:
	.align	2
.L546:
	.word	.LANCHOR4+184
	.cfi_endproc
.LFE758:
	.size	cap_endpoint_cap_get_capCanReceive.part.67, .-cap_endpoint_cap_get_capCanReceive.part.67
	.section	.text.unlikely
	.align	2
	.type	cap_notification_cap_get_capNtfnPtr.isra.68.part.69, %function
cap_notification_cap_get_capNtfnPtr.isra.68.part.69:
.LFB760:
	.loc 28 1405 0
	.cfi_startproc
	@ Volatile: function does not return.
	@ args = 0, pretend = 0, frame = 0
	@ frame_needed = 0, uses_anonymous_args = 0
	.loc 28 1407 0
	movw	r0, #:lower16:.LC33
	movw	r1, #:lower16:.LC30
	.loc 28 1405 0
	stmfd	sp!, {r3, lr}
	.cfi_def_cfa_offset 8
	.cfi_offset 3, -8
	.cfi_offset 14, -4
	.loc 28 1407 0
	movt	r0, #:upper16:.LC33
	movt	r1, #:upper16:.LC30
	mov	r2, #1408
	ldr	r3, .L550
	bl	_assert_fail
.LVL561:
.L551:
	.align	2
.L550:
	.word	.LANCHOR4+220
	.cfi_endproc
.LFE760:
	.size	cap_notification_cap_get_capNtfnPtr.isra.68.part.69, .-cap_notification_cap_get_capNtfnPtr.isra.68.part.69
	.align	2
	.type	cap_notification_cap_get_capNtfnCanReceive.part.70, %function
cap_notification_cap_get_capNtfnCanReceive.part.70:
.LFB761:
	.loc 28 1353 0
	.cfi_startproc
	@ Volatile: function does not return.
	@ args = 0, pretend = 0, frame = 0
	@ frame_needed = 0, uses_anonymous_args = 0
	.loc 28 1355 0
	movw	r0, #:lower16:.LC33
	movw	r1, #:lower16:.LC30
	.loc 28 1353 0
	stmfd	sp!, {r3, lr}
	.cfi_def_cfa_offset 8
	.cfi_offset 3, -8
	.cfi_offset 14, -4
	.loc 28 1355 0
	movt	r0, #:upper16:.LC33
	movt	r1, #:upper16:.LC30
	movw	r2, #1356
	ldr	r3, .L554
	bl	_assert_fail
.LVL562:
.L555:
	.align	2
.L554:
	.word	.LANCHOR4+256
	.cfi_endproc
.LFE761:
	.size	cap_notification_cap_get_capNtfnCanReceive.part.70, .-cap_notification_cap_get_capNtfnCanReceive.part.70
	.align	2
	.type	lookup_fault_missing_capability_new.part.71, %function
lookup_fault_missing_capability_new.part.71:
.LFB762:
	.loc 28 2592 0
	.cfi_startproc
	@ Volatile: function does not return.
	@ args = 0, pretend = 0, frame = 0
	@ frame_needed = 0, uses_anonymous_args = 0
.LVL563:
	.loc 28 2599 0
	movw	r0, #:lower16:.LC34
	movw	r1, #:lower16:.LC30
	.loc 28 2592 0
	stmfd	sp!, {r3, lr}
	.cfi_def_cfa_offset 8
	.cfi_offset 3, -8
	.cfi_offset 14, -4
	.loc 28 2599 0
	movt	r0, #:upper16:.LC34
	movt	r1, #:upper16:.LC30
	movw	r2, #2599
	ldr	r3, .L558
	bl	_assert_fail
.LVL564:
.L559:
	.align	2
.L558:
	.word	.LANCHOR4+300
	.cfi_endproc
.LFE762:
	.size	lookup_fault_missing_capability_new.part.71, .-lookup_fault_missing_capability_new.part.71
	.align	2
	.type	cap_frame_cap_new.part.72, %function
cap_frame_cap_new.part.72:
.LFB763:
	.loc 28 1767 0
	.cfi_startproc
	@ Volatile: function does not return.
	@ args = 0, pretend = 0, frame = 0
	@ frame_needed = 0, uses_anonymous_args = 0
.LVL565:
	.loc 28 1774 0
	movw	r0, #:lower16:.LC35
	movw	r1, #:lower16:.LC30
	.loc 28 1767 0
	stmfd	sp!, {r3, lr}
	.cfi_def_cfa_offset 8
	.cfi_offset 3, -8
	.cfi_offset 14, -4
	.loc 28 1774 0
	movt	r0, #:upper16:.LC35
	movt	r1, #:upper16:.LC30
	movw	r2, #1774
	ldr	r3, .L562
	bl	_assert_fail
.LVL566:
.L563:
	.align	2
.L562:
	.word	.LANCHOR4+336
	.cfi_endproc
.LFE763:
	.size	cap_frame_cap_new.part.72, .-cap_frame_cap_new.part.72
	.align	2
	.type	cap_small_frame_cap_new.part.73, %function
cap_small_frame_cap_new.part.73:
.LFB764:
	.loc 28 1620 0
	.cfi_startproc
	@ Volatile: function does not return.
	@ args = 0, pretend = 0, frame = 0
	@ frame_needed = 0, uses_anonymous_args = 0
.LVL567:
	.loc 28 1627 0
	movw	r0, #:lower16:.LC36
	movw	r1, #:lower16:.LC30
	.loc 28 1620 0
	stmfd	sp!, {r3, lr}
	.cfi_def_cfa_offset 8
	.cfi_offset 3, -8
	.cfi_offset 14, -4
	.loc 28 1627 0
	movt	r0, #:upper16:.LC36
	movt	r1, #:upper16:.LC30
	movw	r2, #1627
	ldr	r3, .L566
	bl	_assert_fail
.LVL568:
.L567:
	.align	2
.L566:
	.word	.LANCHOR4+356
	.cfi_endproc
.LFE764:
	.size	cap_small_frame_cap_new.part.73, .-cap_small_frame_cap_new.part.73
	.align	2
	.type	cap_untyped_cap_get_capPtr.isra.75.part.76, %function
cap_untyped_cap_get_capPtr.isra.75.part.76:
.LFB767:
	.loc 28 1140 0
	.cfi_startproc
	@ Volatile: function does not return.
	@ args = 0, pretend = 0, frame = 0
	@ frame_needed = 0, uses_anonymous_args = 0
	.loc 28 1142 0
	movw	r0, #:lower16:.LC37
	movw	r1, #:lower16:.LC30
	.loc 28 1140 0
	stmfd	sp!, {r3, lr}
	.cfi_def_cfa_offset 8
	.cfi_offset 3, -8
	.cfi_offset 14, -4
	.loc 28 1142 0
	movt	r0, #:upper16:.LC37
	movt	r1, #:upper16:.LC30
	movw	r2, #1143
	ldr	r3, .L570
	bl	_assert_fail
.LVL569:
.L571:
	.align	2
.L570:
	.word	.LANCHOR4+380
	.cfi_endproc
.LFE767:
	.size	cap_untyped_cap_get_capPtr.isra.75.part.76, .-cap_untyped_cap_get_capPtr.isra.75.part.76
	.text
	.align	2
	.type	cap_endpoint_cap_get_capEPPtr.part.77, %function
cap_endpoint_cap_get_capEPPtr.part.77:
.LFB768:
	.loc 28 1183 0
	.cfi_startproc
	@ Volatile: function does not return.
	@ args = 0, pretend = 0, frame = 0
	@ frame_needed = 0, uses_anonymous_args = 0
	.loc 28 1185 0
	movw	r0, #:lower16:.LC32
	movw	r1, #:lower16:.LC30
	.loc 28 1183 0
	stmfd	sp!, {r3, lr}
	.cfi_def_cfa_offset 8
	.cfi_offset 3, -8
	.cfi_offset 14, -4
	.loc 28 1185 0
	movt	r0, #:upper16:.LC32
	movt	r1, #:upper16:.LC30
	movw	r2, #1186
	ldr	r3, .L574
	bl	_assert_fail
.LVL570:
.L575:
	.align	2
.L574:
	.word	.LANCHOR4+408
	.cfi_endproc
.LFE768:
	.size	cap_endpoint_cap_get_capEPPtr.part.77, .-cap_endpoint_cap_get_capEPPtr.part.77
	.section	.text.unlikely
	.align	2
	.type	cap_cnode_cap_get_capCNodePtr.isra.78.part.79, %function
cap_cnode_cap_get_capCNodePtr.isra.78.part.79:
.LFB770:
	.loc 28 1575 0
	.cfi_startproc
	@ Volatile: function does not return.
	@ args = 0, pretend = 0, frame = 0
	@ frame_needed = 0, uses_anonymous_args = 0
	.loc 28 1577 0
	movw	r0, #:lower16:.LC38
	movw	r1, #:lower16:.LC30
	.loc 28 1575 0
	stmfd	sp!, {r3, lr}
	.cfi_def_cfa_offset 8
	.cfi_offset 3, -8
	.cfi_offset 14, -4
	.loc 28 1577 0
	movt	r0, #:upper16:.LC38
	movt	r1, #:upper16:.LC30
	movw	r2, #1578
	ldr	r3, .L578
	bl	_assert_fail
.LVL571:
.L579:
	.align	2
.L578:
	.word	.LANCHOR4+440
	.cfi_endproc
.LFE770:
	.size	cap_cnode_cap_get_capCNodePtr.isra.78.part.79, .-cap_cnode_cap_get_capCNodePtr.isra.78.part.79
	.align	2
	.type	cap_zombie_cap_get_capZombieType.isra.80.part.81, %function
cap_zombie_cap_get_capZombieType.isra.80.part.81:
.LFB772:
	.loc 28 2316 0
	.cfi_startproc
	@ Volatile: function does not return.
	@ args = 0, pretend = 0, frame = 0
	@ frame_needed = 0, uses_anonymous_args = 0
	.loc 28 2318 0
	movw	r0, #:lower16:.LC39
	movw	r1, #:lower16:.LC30
	.loc 28 2316 0
	stmfd	sp!, {r3, lr}
	.cfi_def_cfa_offset 8
	.cfi_offset 3, -8
	.cfi_offset 14, -4
	.loc 28 2318 0
	movt	r0, #:upper16:.LC39
	movt	r1, #:upper16:.LC30
	movw	r2, #2319
	ldr	r3, .L582
	bl	_assert_fail
.LVL572:
.L583:
	.align	2
.L582:
	.word	.LANCHOR4+472
	.cfi_endproc
.LFE772:
	.size	cap_zombie_cap_get_capZombieType.isra.80.part.81, .-cap_zombie_cap_get_capZombieType.isra.80.part.81
	.align	2
	.type	cap_zombie_cap_get_capZombieID.part.83, %function
cap_zombie_cap_get_capZombieID.part.83:
.LFB774:
	.loc 28 2290 0
	.cfi_startproc
	@ Volatile: function does not return.
	@ args = 0, pretend = 0, frame = 0
	@ frame_needed = 0, uses_anonymous_args = 0
	.loc 28 2292 0
	movw	r0, #:lower16:.LC39
	movw	r1, #:lower16:.LC30
	.loc 28 2290 0
	stmfd	sp!, {r3, lr}
	.cfi_def_cfa_offset 8
	.cfi_offset 3, -8
	.cfi_offset 14, -4
	.loc 28 2292 0
	movt	r0, #:upper16:.LC39
	movt	r1, #:upper16:.LC30
	movw	r2, #2293
	ldr	r3, .L586
	bl	_assert_fail
.LVL573:
.L587:
	.align	2
.L586:
	.word	.LANCHOR4+508
	.cfi_endproc
.LFE774:
	.size	cap_zombie_cap_get_capZombieID.part.83, .-cap_zombie_cap_get_capZombieID.part.83
	.align	2
	.type	cap_small_frame_cap_get_capFBasePtr.isra.85.part.86, %function
cap_small_frame_cap_get_capFBasePtr.isra.85.part.86:
.LFB777:
	.loc 28 1753 0
	.cfi_startproc
	@ Volatile: function does not return.
	@ args = 0, pretend = 0, frame = 0
	@ frame_needed = 0, uses_anonymous_args = 0
	.loc 28 1755 0
	movw	r0, #:lower16:.LC40
	movw	r1, #:lower16:.LC30
	.loc 28 1753 0
	stmfd	sp!, {r3, lr}
	.cfi_def_cfa_offset 8
	.cfi_offset 3, -8
	.cfi_offset 14, -4
	.loc 28 1755 0
	movt	r0, #:upper16:.LC40
	movt	r1, #:upper16:.LC30
	movw	r2, #1756
	ldr	r3, .L590
	bl	_assert_fail
.LVL574:
.L591:
	.align	2
.L590:
	.word	.LANCHOR4+540
	.cfi_endproc
.LFE777:
	.size	cap_small_frame_cap_get_capFBasePtr.isra.85.part.86, .-cap_small_frame_cap_get_capFBasePtr.isra.85.part.86
	.align	2
	.type	cap_frame_cap_get_capFBasePtr.isra.87.part.88, %function
cap_frame_cap_get_capFBasePtr.isra.87.part.88:
.LFB779:
	.loc 28 1917 0
	.cfi_startproc
	@ Volatile: function does not return.
	@ args = 0, pretend = 0, frame = 0
	@ frame_needed = 0, uses_anonymous_args = 0
	.loc 28 1919 0
	movw	r0, #:lower16:.LC41
	movw	r1, #:lower16:.LC30
	.loc 28 1917 0
	stmfd	sp!, {r3, lr}
	.cfi_def_cfa_offset 8
	.cfi_offset 3, -8
	.cfi_offset 14, -4
	.loc 28 1919 0
	movt	r0, #:upper16:.LC41
	movt	r1, #:upper16:.LC30
	mov	r2, #1920
	ldr	r3, .L594
	bl	_assert_fail
.LVL575:
.L595:
	.align	2
.L594:
	.word	.LANCHOR4+576
	.cfi_endproc
.LFE779:
	.size	cap_frame_cap_get_capFBasePtr.isra.87.part.88, .-cap_frame_cap_get_capFBasePtr.isra.87.part.88
	.align	2
	.type	generic_frame_cap_get_capFBasePtr.isra.89.part.90, %function
generic_frame_cap_get_capFBasePtr.isra.89.part.90:
.LFB781:
	.file 38 "/home/neelesh/research/seL4-tutorials-manifest/kernel/include/arch/arm/arch/object/structures.h"
	.loc 38 202 0
	.cfi_startproc
	@ Volatile: function does not return.
	@ args = 0, pretend = 0, frame = 0
	@ frame_needed = 0, uses_anonymous_args = 0
	.loc 38 207 0
	movw	r0, #:lower16:.LC42
	movw	r1, #:lower16:.LC43
	.loc 38 202 0
	stmfd	sp!, {r3, lr}
	.cfi_def_cfa_offset 8
	.cfi_offset 3, -8
	.cfi_offset 14, -4
	.loc 38 207 0
	movt	r0, #:upper16:.LC42
	movt	r1, #:upper16:.LC43
	mov	r2, #208
	ldr	r3, .L598
	bl	_assert_fail
.LVL576:
.L599:
	.align	2
.L598:
	.word	.LANCHOR4+608
	.cfi_endproc
.LFE781:
	.size	generic_frame_cap_get_capFBasePtr.isra.89.part.90, .-generic_frame_cap_get_capFBasePtr.isra.89.part.90
	.align	2
	.type	cap_page_table_cap_get_capPTBasePtr.isra.91.part.92, %function
cap_page_table_cap_get_capPTBasePtr.isra.91.part.92:
.LFB783:
	.loc 28 2096 0
	.cfi_startproc
	@ Volatile: function does not return.
	@ args = 0, pretend = 0, frame = 0
	@ frame_needed = 0, uses_anonymous_args = 0
	.loc 28 2098 0
	movw	r0, #:lower16:.LC44
	movw	r1, #:lower16:.LC30
	.loc 28 2096 0
	stmfd	sp!, {r3, lr}
	.cfi_def_cfa_offset 8
	.cfi_offset 3, -8
	.cfi_offset 14, -4
	.loc 28 2098 0
	movt	r0, #:upper16:.LC44
	movt	r1, #:upper16:.LC30
	movw	r2, #2099
	ldr	r3, .L602
	bl	_assert_fail
.LVL577:
.L603:
	.align	2
.L602:
	.word	.LANCHOR4+644
	.cfi_endproc
.LFE783:
	.size	cap_page_table_cap_get_capPTBasePtr.isra.91.part.92, .-cap_page_table_cap_get_capPTBasePtr.isra.91.part.92
	.text
	.align	2
	.type	cap_page_directory_cap_get_capPDBasePtr.isra.93.part.94, %function
cap_page_directory_cap_get_capPDBasePtr.isra.93.part.94:
.LFB785:
	.loc 28 2160 0
	.cfi_startproc
	@ Volatile: function does not return.
	@ args = 0, pretend = 0, frame = 0
	@ frame_needed = 0, uses_anonymous_args = 0
	.loc 28 2162 0
	movw	r0, #:lower16:.LC45
	movw	r1, #:lower16:.LC30
	.loc 28 2160 0
	stmfd	sp!, {r3, lr}
	.cfi_def_cfa_offset 8
	.cfi_offset 3, -8
	.cfi_offset 14, -4
	.loc 28 2162 0
	movt	r0, #:upper16:.LC45
	movt	r1, #:upper16:.LC30
	movw	r2, #2163
	ldr	r3, .L606
	bl	_assert_fail
.LVL578:
.L607:
	.align	2
.L606:
	.word	.LANCHOR4+680
	.cfi_endproc
.LFE785:
	.size	cap_page_directory_cap_get_capPDBasePtr.isra.93.part.94, .-cap_page_directory_cap_get_capPDBasePtr.isra.93.part.94
	.section	.text.unlikely
	.align	2
	.type	cap_asid_pool_cap_get_capASIDPool.isra.95.part.96, %function
cap_asid_pool_cap_get_capASIDPool.isra.95.part.96:
.LFB787:
	.loc 28 1965 0
	.cfi_startproc
	@ Volatile: function does not return.
	@ args = 0, pretend = 0, frame = 0
	@ frame_needed = 0, uses_anonymous_args = 0
	.loc 28 1967 0
	movw	r0, #:lower16:.LC46
	movw	r1, #:lower16:.LC30
	.loc 28 1965 0
	stmfd	sp!, {r3, lr}
	.cfi_def_cfa_offset 8
	.cfi_offset 3, -8
	.cfi_offset 14, -4
	.loc 28 1967 0
	movt	r0, #:upper16:.LC46
	movt	r1, #:upper16:.LC30
	mov	r2, #1968
	ldr	r3, .L610
	bl	_assert_fail
.LVL579:
.L611:
	.align	2
.L610:
	.word	.LANCHOR4+720
	.cfi_endproc
.LFE787:
	.size	cap_asid_pool_cap_get_capASIDPool.isra.95.part.96, .-cap_asid_pool_cap_get_capASIDPool.isra.95.part.96
	.section	.boot.text
	.align	2
	.global	write_it_asid_pool
	.type	write_it_asid_pool, %function
write_it_asid_pool:
.LFB325:
	.loc 14 317 0
	.cfi_startproc
	@ args = 0, pretend = 0, frame = 16
	@ frame_needed = 0, uses_anonymous_args = 0
	str	lr, [sp, #-4]!
	.cfi_def_cfa_offset 4
	.cfi_offset 14, -4
	sub	sp, sp, #20
	.cfi_def_cfa_offset 24
	.loc 14 317 0
	add	ip, sp, #16
	stmia	sp, {r2, r3}
	stmdb	ip, {r0, r1}
	ldr	r1, [sp, #8]
.LVL580:
	ldr	ip, [sp, #12]
.LVL581:
.LBB4564:
.LBB4565:
.LBB4566:
.LBB4567:
	.loc 28 1035 0
	and	r3, r1, #14
	cmp	r3, #14
	beq	.L613
	.loc 28 1036 0
	and	r3, r1, #15
.LVL582:
.LBE4567:
.LBE4566:
	.file 39 "/home/neelesh/research/seL4-tutorials-manifest/kernel/include/object/structures.h"
	.loc 39 317 0
	sub	r2, r3, #2
	cmp	r2, #12
	ldrls	pc, [pc, r2, asl #2]
	b	.L614
.L616:
	.word	.L615
	.word	.L614
	.word	.L617
	.word	.L614
	.word	.L618
	.word	.L614
	.word	.L701
	.word	.L614
	.word	.L620
	.word	.L614
	.word	.L621
	.word	.L614
	.word	.L701
.LVL583:
.L613:
.LBB4569:
.LBB4568:
	.loc 28 1037 0
	uxtb	r3, r1
.LVL584:
.LBE4568:
.LBE4569:
	.loc 39 317 0
	sub	r2, r3, #2
	cmp	r2, #60
	ldrls	pc, [pc, r2, asl #2]
	b	.L622
.L624:
	.word	.L623
	.word	.L622
	.word	.L625
	.word	.L622
	.word	.L626
	.word	.L622
	.word	.L701
	.word	.L622
	.word	.L627
	.word	.L622
	.word	.L628
	.word	.L622
	.word	.L701
	.word	.L622
	.word	.L622
	.word	.L622
	.word	.L622
	.word	.L622
	.word	.L622
	.word	.L622
	.word	.L622
	.word	.L622
	.word	.L622
	.word	.L622
	.word	.L622
	.word	.L622
	.word	.L622
	.word	.L622
	.word	.L701
	.word	.L622
	.word	.L622
	.word	.L622
	.word	.L622
	.word	.L622
	.word	.L622
	.word	.L622
	.word	.L622
	.word	.L622
	.word	.L622
	.word	.L622
	.word	.L622
	.word	.L622
	.word	.L622
	.word	.L622
	.word	.L629
	.word	.L622
	.word	.L622
	.word	.L622
	.word	.L622
	.word	.L622
	.word	.L622
	.word	.L622
	.word	.L622
	.word	.L622
	.word	.L622
	.word	.L622
	.word	.L622
	.word	.L622
	.word	.L622
	.word	.L622
	.word	.L701
.L701:
.LBB4570:
.LBB4571:
	.loc 38 318 0
	mov	r1, #0
.LVL585:
.L619:
	ldmia	sp, {r3, ip}
.LVL586:
.LBE4571:
.LBE4570:
.LBE4565:
.LBE4564:
.LBB4635:
.LBB4636:
.LBB4637:
.LBB4638:
	.loc 28 1035 0
	and	r2, r3, #14
	cmp	r2, #14
	beq	.L655
.L714:
	.loc 28 1036 0
	and	r2, r3, #15
.LVL587:
.LBE4638:
.LBE4637:
	.loc 39 317 0
	sub	r0, r2, #2
	cmp	r0, #12
	ldrls	pc, [pc, r0, asl #2]
	b	.L656
.L658:
	.word	.L657
	.word	.L656
	.word	.L659
	.word	.L656
	.word	.L660
	.word	.L656
	.word	.L707
	.word	.L656
	.word	.L662
	.word	.L656
	.word	.L663
	.word	.L656
	.word	.L707
.L707:
.LBB4640:
.LBB4641:
	.loc 38 318 0
	mov	r3, #0
.LVL588:
.L661:
.LBE4641:
.LBE4640:
.LBE4636:
.LBE4635:
	.loc 14 320 0
	movw	r2, #:lower16:armKSASIDTable
	.loc 14 319 0
	str	r3, [r1, #4]
	.loc 14 320 0
	movt	r2, #:upper16:armKSASIDTable
	str	r1, [r2]
	.loc 14 321 0
	add	sp, sp, #20
	.cfi_remember_state
	.cfi_def_cfa_offset 4
.LVL589:
	@ sp needed
	ldr	pc, [sp], #4
.LVL590:
.L668:
	.cfi_restore_state
	and	r2, r3, #15
.LVL591:
.L660:
.LBB4692:
.LBB4685:
.LBB4663:
.LBB4664:
	.loc 28 1407 0
	cmp	r2, #6
	bne	.L674
.LVL592:
.L713:
.LBE4664:
.LBE4663:
.LBB4665:
.LBB4658:
.LBB4642:
.LBB4643:
	.loc 28 1970 0
	bic	r3, r3, #15
.LVL593:
	b	.L661
.LVL594:
.L667:
	and	r2, r3, #15
.LVL595:
.L659:
.LBE4643:
.LBE4642:
.LBE4658:
.LBE4665:
.LBB4666:
.LBB4667:
	.loc 28 1185 0
	cmp	r2, #4
	bne	.L673
.LVL596:
	.loc 28 1188 0
	bic	r3, ip, #15
.LVL597:
	b	.L661
.LVL598:
.L665:
	and	r2, r3, #15
.LVL599:
.L657:
.LBE4667:
.LBE4666:
.LBB4668:
.LBB4669:
	.loc 28 1142 0
	cmp	r2, #2
	beq	.L713
.LVL600:
.L672:
.LBE4669:
.LBE4668:
.LBE4685:
.LBE4692:
.LBB4693:
.LBB4628:
.LBB4597:
.LBB4598:
	bl	cap_untyped_cap_get_capPtr.isra.75.part.76
.LVL601:
.L670:
	and	r2, r3, #15
.LVL602:
.L663:
.LBE4598:
.LBE4597:
.LBE4628:
.LBE4693:
.LBB4694:
.LBB4686:
.LBB4670:
.LBB4671:
	.loc 28 1608 0
	cmp	r2, #12
	bne	.L676
.LVL603:
.LBE4671:
.LBE4670:
	.loc 39 331 0
	bic	r3, r3, #508
.LVL604:
	bic	r3, r3, #3
	b	.L661
.LVL605:
.L669:
	and	r2, r3, #15
.LVL606:
.L662:
.LBB4672:
.LBB4673:
	.loc 28 1577 0
	cmp	r2, #10
	bne	.L675
.LVL607:
	.loc 28 1580 0
	bic	r3, r3, #31
.LVL608:
	b	.L661
.LVL609:
.L627:
	and	r3, r1, #15
.LVL610:
.L620:
.LBE4673:
.LBE4672:
.LBE4686:
.LBE4694:
.LBB4695:
.LBB4629:
.LBB4600:
.LBB4601:
	.loc 28 1577 0
	cmp	r3, #10
	.loc 28 1580 0
	biceq	r1, r1, #31
	.loc 28 1577 0
	beq	.L619
.LVL611:
.L675:
	bl	cap_cnode_cap_get_capCNodePtr.isra.78.part.79
.LVL612:
.L628:
	and	r3, r1, #15
.LVL613:
.L621:
.LBE4601:
.LBE4600:
.LBB4602:
.LBB4603:
	.loc 28 1608 0
	cmp	r3, #12
.LBE4603:
.LBE4602:
	.loc 39 331 0
	biceq	r1, r1, #508
	biceq	r1, r1, #3
.LBB4605:
.LBB4604:
	.loc 28 1608 0
	beq	.L619
.LVL614:
.L676:
	bl	cap_thread_cap_get_capTCBPtr.isra.59.part.60
.LVL615:
.L623:
	and	r3, r1, #15
.LVL616:
.L615:
.LBE4604:
.LBE4605:
.LBB4606:
.LBB4599:
	.loc 28 1142 0
	cmp	r3, #2
	bne	.L672
.L654:
.LVL617:
	ldmia	sp, {r3, ip}
.LVL618:
.LBE4599:
.LBE4606:
.LBB4607:
.LBB4592:
.LBB4572:
.LBB4573:
	.loc 28 1970 0
	bic	r1, r1, #15
.LVL619:
.LBE4573:
.LBE4572:
.LBE4592:
.LBE4607:
.LBE4629:
.LBE4695:
.LBB4696:
.LBB4687:
.LBB4674:
.LBB4639:
	.loc 28 1035 0
	and	r2, r3, #14
	cmp	r2, #14
	bne	.L714
.L655:
	.loc 28 1037 0
	uxtb	r2, r3
.LVL620:
.LBE4639:
.LBE4674:
	.loc 39 317 0
	sub	r0, r2, #2
	cmp	r0, #60
	ldrls	pc, [pc, r0, asl #2]
	b	.L664
.L666:
	.word	.L665
	.word	.L664
	.word	.L667
	.word	.L664
	.word	.L668
	.word	.L664
	.word	.L707
	.word	.L664
	.word	.L669
	.word	.L664
	.word	.L670
	.word	.L664
	.word	.L707
	.word	.L664
	.word	.L664
	.word	.L664
	.word	.L664
	.word	.L664
	.word	.L664
	.word	.L664
	.word	.L664
	.word	.L664
	.word	.L664
	.word	.L664
	.word	.L664
	.word	.L664
	.word	.L664
	.word	.L664
	.word	.L707
	.word	.L664
	.word	.L664
	.word	.L664
	.word	.L664
	.word	.L664
	.word	.L664
	.word	.L664
	.word	.L664
	.word	.L664
	.word	.L664
	.word	.L664
	.word	.L664
	.word	.L664
	.word	.L664
	.word	.L664
	.word	.L671
	.word	.L664
	.word	.L664
	.word	.L664
	.word	.L664
	.word	.L664
	.word	.L664
	.word	.L664
	.word	.L664
	.word	.L664
	.word	.L664
	.word	.L664
	.word	.L664
	.word	.L664
	.word	.L664
	.word	.L664
	.word	.L707
.LVL621:
.L625:
	and	r3, r1, #15
.LVL622:
.L617:
.LBE4687:
.LBE4696:
.LBB4697:
.LBB4630:
.LBB4608:
.LBB4609:
	.loc 28 1185 0
	cmp	r3, #4
	.loc 28 1188 0
	biceq	r1, ip, #15
	.loc 28 1185 0
	beq	.L619
.LVL623:
.L673:
	bl	cap_endpoint_cap_get_capEPPtr.part.77
.LVL624:
.L626:
	and	r3, r1, #15
.LVL625:
.L618:
.LBE4609:
.LBE4608:
.LBB4610:
.LBB4611:
	.loc 28 1407 0
	cmp	r3, #6
	beq	.L654
.LVL626:
.L674:
	bl	cap_notification_cap_get_capNtfnPtr.isra.68.part.69
.LVL627:
.L614:
.LBE4611:
.LBE4610:
.LBB4612:
.LBB4593:
	.loc 38 302 0
	sub	r2, r3, #1
	cmp	r2, #8
	ldrls	pc, [pc, r2, asl #2]
	b	.L701
.L638:
	.word	.L637
	.word	.L701
	.word	.L637
	.word	.L701
	.word	.L639
	.word	.L701
	.word	.L640
	.word	.L701
	.word	.L641
.LVL628:
.L656:
.LBE4593:
.LBE4612:
.LBE4630:
.LBE4697:
.LBB4698:
.LBB4688:
.LBB4675:
.LBB4659:
	sub	r0, r2, #1
	cmp	r0, #8
	ldrls	pc, [pc, r0, asl #2]
	b	.L707
.L680:
	.word	.L679
	.word	.L707
	.word	.L679
	.word	.L707
	.word	.L681
	.word	.L707
	.word	.L682
	.word	.L707
	.word	.L683
.LVL629:
.L629:
.LBE4659:
.LBE4675:
.LBE4688:
.LBE4698:
.LBB4699:
.LBB4631:
.LBB4613:
.LBB4614:
.LBB4615:
.LBB4616:
.LBB4617:
.LBB4618:
	.loc 28 2318 0
	cmp	r3, #46
	bne	.L677
	.loc 28 2321 0
	ubfx	r3, r1, #8, #6
.LVL630:
.LBE4618:
.LBE4617:
	.loc 39 97 0
	cmp	r3, #32
	.loc 39 100 0
	andne	r3, r3, #31
.LVL631:
	mvnne	r1, #0
.LVL632:
	addne	r3, r3, #1
	.loc 39 97 0
	mvneq	r1, #31
.LVL633:
	movne	r1, r1, asl r3
.LBE4616:
.LBE4615:
	.loc 39 114 0
	and	r1, r1, ip
	b	.L619
.LVL634:
.L671:
.LBE4614:
.LBE4613:
.LBE4631:
.LBE4699:
.LBB4700:
.LBB4689:
.LBB4676:
.LBB4677:
.LBB4678:
.LBB4679:
.LBB4680:
.LBB4681:
	.loc 28 2318 0
	cmp	r2, #46
	bne	.L677
	.loc 28 2321 0
	ubfx	r2, r3, #8, #6
.LVL635:
.LBE4681:
.LBE4680:
	.loc 39 97 0
	cmp	r2, #32
	.loc 39 100 0
	andne	r2, r2, #31
.LVL636:
	mvnne	r3, #0
.LVL637:
	addne	r2, r2, #1
	.loc 39 97 0
	mvneq	r2, #31
.LVL638:
	movne	r2, r3, asl r2
.LBE4679:
.LBE4678:
	.loc 39 114 0
	and	r3, r2, ip
	b	.L661
.LVL639:
.L687:
	and	r2, r3, #15
.LVL640:
.L683:
.LBE4677:
.LBE4676:
.LBB4682:
.LBB4660:
.LBB4645:
.LBB4646:
	.loc 28 2162 0
	cmp	r2, #9
	bne	.L695
.LVL641:
	.loc 28 2165 0
	bic	r3, r3, #16320
.LVL642:
	bic	r3, r3, #63
	b	.L661
.LVL643:
.L686:
	and	r2, r3, #15
.LVL644:
.L682:
.LBE4646:
.LBE4645:
.LBB4647:
.LBB4648:
	.loc 28 2098 0
	cmp	r2, #7
	bne	.L694
.LVL645:
	.loc 28 2101 0
	bic	r3, r3, #1020
.LVL646:
	bic	r3, r3, #3
	b	.L661
.LVL647:
.L679:
.LBE4648:
.LBE4647:
.LBB4649:
.LBB4650:
	.loc 38 207 0
	and	r0, r2, #253
	cmp	r0, #1
	bne	.L688
	.loc 38 210 0
	cmp	r2, #1
	beq	.L690
	cmp	r2, #3
	bne	.L707
.LVL648:
.LBB4651:
.LBB4652:
	.loc 28 1919 0
	and	r2, r3, #15
.LVL649:
	cmp	r2, #3
	bne	.L693
.LVL650:
	.loc 28 1922 0
	bic	r3, r3, #-268435441
.LVL651:
	bic	r3, r3, #264241152
	mov	r3, r3, asl #10
	b	.L661
.LVL652:
.L685:
	and	r2, r3, #15
.LVL653:
.L681:
.LBE4652:
.LBE4651:
.LBE4650:
.LBE4649:
.LBB4656:
.LBB4644:
	.loc 28 1967 0
	cmp	r2, #5
	beq	.L713
.LVL654:
.L696:
.LBE4644:
.LBE4656:
.LBE4660:
.LBE4682:
.LBE4689:
.LBE4700:
.LBB4701:
.LBB4632:
.LBB4624:
.LBB4594:
.LBB4576:
.LBB4574:
	bl	cap_asid_pool_cap_get_capASIDPool.isra.95.part.96
.LVL655:
.L645:
	and	r3, r1, #15
.LVL656:
.L641:
.LBE4574:
.LBE4576:
.LBB4577:
.LBB4578:
	.loc 28 2162 0
	cmp	r3, #9
	.loc 28 2165 0
	biceq	r1, r1, #16320
	biceq	r1, r1, #63
	.loc 28 2162 0
	beq	.L619
.LVL657:
.L695:
	bl	cap_page_directory_cap_get_capPDBasePtr.isra.93.part.94
.LVL658:
.L644:
	and	r3, r1, #15
.LVL659:
.L640:
.LBE4578:
.LBE4577:
.LBB4579:
.LBB4580:
	.loc 28 2098 0
	cmp	r3, #7
	.loc 28 2101 0
	biceq	r1, r1, #1020
	biceq	r1, r1, #3
	.loc 28 2098 0
	beq	.L619
.LVL660:
.L694:
	bl	cap_page_table_cap_get_capPTBasePtr.isra.91.part.92
.LVL661:
.L643:
	and	r3, r1, #15
.LVL662:
.L639:
.LBE4580:
.LBE4579:
.LBB4581:
.LBB4575:
	.loc 28 1967 0
	cmp	r3, #5
	beq	.L654
	b	.L696
.LVL663:
.L637:
.LBE4575:
.LBE4581:
.LBB4582:
.LBB4583:
	.loc 38 207 0
	and	r2, r3, #253
	cmp	r2, #1
	bne	.L688
	.loc 38 210 0
	cmp	r3, #1
	beq	.L648
	cmp	r3, #3
	bne	.L701
.LVL664:
.LBB4584:
.LBB4585:
	.loc 28 1919 0
	and	r3, r1, #15
.LVL665:
	cmp	r3, #3
	.loc 28 1922 0
	biceq	r1, r1, #-268435441
	biceq	r1, r1, #264241152
	moveq	r1, r1, asl #10
	.loc 28 1919 0
	beq	.L619
.LVL666:
.L693:
	bl	cap_frame_cap_get_capFBasePtr.isra.87.part.88
.LVL667:
.L664:
.LBE4585:
.LBE4584:
.LBE4583:
.LBE4582:
.LBE4594:
.LBE4624:
.LBE4632:
.LBE4701:
.LBB4702:
.LBB4690:
.LBB4683:
.LBB4661:
	.loc 38 302 0
	sub	r0, r2, #1
	cmp	r0, #8
	ldrls	pc, [pc, r0, asl #2]
	b	.L707
.L684:
	.word	.L679
	.word	.L707
	.word	.L679
	.word	.L707
	.word	.L685
	.word	.L707
	.word	.L686
	.word	.L707
	.word	.L687
.LVL668:
.L622:
.LBE4661:
.LBE4683:
.LBE4690:
.LBE4702:
.LBB4703:
.LBB4633:
.LBB4625:
.LBB4595:
	sub	r2, r3, #1
	cmp	r2, #8
	ldrls	pc, [pc, r2, asl #2]
	b	.L701
.L642:
	.word	.L637
	.word	.L701
	.word	.L637
	.word	.L701
	.word	.L643
	.word	.L701
	.word	.L644
	.word	.L701
	.word	.L645
.LVL669:
.L648:
.LBB4590:
.LBB4588:
.LBB4586:
.LBB4587:
	.loc 28 1755 0
	and	r3, r1, #15
.LVL670:
	cmp	r3, #1
	.loc 28 1758 0
	biceq	r1, r1, #-16777216
	biceq	r1, r1, #15
	moveq	r1, r1, asl #8
	.loc 28 1755 0
	beq	.L619
.LVL671:
.L692:
	bl	cap_small_frame_cap_get_capFBasePtr.isra.85.part.86
.LVL672:
.L690:
.LBE4587:
.LBE4586:
.LBE4588:
.LBE4590:
.LBE4595:
.LBE4625:
.LBE4633:
.LBE4703:
.LBB4704:
.LBB4691:
.LBB4684:
.LBB4662:
.LBB4657:
.LBB4655:
.LBB4653:
.LBB4654:
	and	r2, r3, #15
.LVL673:
	cmp	r2, #1
	bne	.L692
.LVL674:
	.loc 28 1758 0
	bic	r3, r3, #-16777216
.LVL675:
	bic	r3, r3, #15
	mov	r3, r3, asl #8
	b	.L661
.LVL676:
.L677:
.LBE4654:
.LBE4653:
.LBE4655:
.LBE4657:
.LBE4662:
.LBE4684:
.LBE4691:
.LBE4704:
.LBB4705:
.LBB4634:
.LBB4626:
.LBB4623:
.LBB4622:
.LBB4621:
.LBB4620:
.LBB4619:
	bl	cap_zombie_cap_get_capZombieType.isra.80.part.81
.LVL677:
.L688:
.LBE4619:
.LBE4620:
.LBE4621:
.LBE4622:
.LBE4623:
.LBE4626:
.LBB4627:
.LBB4596:
.LBB4591:
.LBB4589:
	bl	generic_frame_cap_get_capFBasePtr.isra.89.part.90
.LVL678:
.LBE4589:
.LBE4591:
.LBE4596:
.LBE4627:
.LBE4634:
.LBE4705:
	.cfi_endproc
.LFE325:
	.size	write_it_asid_pool, .-write_it_asid_pool
	.section	.text.unlikely
	.align	2
	.type	cap_page_directory_cap_new.part.98, %function
cap_page_directory_cap_new.part.98:
.LFB789:
	.loc 28 2110 0
	.cfi_startproc
	@ Volatile: function does not return.
	@ args = 0, pretend = 0, frame = 0
	@ frame_needed = 0, uses_anonymous_args = 0
.LVL679:
	.loc 28 2117 0
	movw	r0, #:lower16:.LC47
	movw	r1, #:lower16:.LC30
	.loc 28 2110 0
	stmfd	sp!, {r3, lr}
	.cfi_def_cfa_offset 8
	.cfi_offset 3, -8
	.cfi_offset 14, -4
	.loc 28 2117 0
	movt	r0, #:upper16:.LC47
	movt	r1, #:upper16:.LC30
	movw	r2, #2117
	ldr	r3, .L717
	bl	_assert_fail
.LVL680:
.L718:
	.align	2
.L717:
	.word	.LANCHOR4+756
	.cfi_endproc
.LFE789:
	.size	cap_page_directory_cap_new.part.98, .-cap_page_directory_cap_new.part.98
	.align	2
	.type	cap_page_table_cap_new.part.99, %function
cap_page_table_cap_new.part.99:
.LFB790:
	.loc 28 1979 0
	.cfi_startproc
	@ Volatile: function does not return.
	@ args = 0, pretend = 0, frame = 0
	@ frame_needed = 0, uses_anonymous_args = 0
.LVL681:
	.loc 28 1986 0
	movw	r0, #:lower16:.LC48
	movw	r1, #:lower16:.LC30
	.loc 28 1979 0
	stmfd	sp!, {r3, lr}
	.cfi_def_cfa_offset 8
	.cfi_offset 3, -8
	.cfi_offset 14, -4
	.loc 28 1986 0
	movt	r0, #:upper16:.LC48
	movt	r1, #:upper16:.LC30
	movw	r2, #1986
	ldr	r3, .L721
	bl	_assert_fail
.LVL682:
.L722:
	.align	2
.L721:
	.word	.LANCHOR4+784
	.cfi_endproc
.LFE790:
	.size	cap_page_table_cap_new.part.99, .-cap_page_table_cap_new.part.99
	.align	2
	.type	cap_page_table_cap_get_capPTMappedAddress.part.100, %function
cap_page_table_cap_get_capPTMappedAddress.part.100:
.LFB791:
	.loc 28 2070 0
	.cfi_startproc
	@ Volatile: function does not return.
	@ args = 0, pretend = 0, frame = 0
	@ frame_needed = 0, uses_anonymous_args = 0
	.loc 28 2072 0
	movw	r0, #:lower16:.LC44
	movw	r1, #:lower16:.LC30
	.loc 28 2070 0
	stmfd	sp!, {r3, lr}
	.cfi_def_cfa_offset 8
	.cfi_offset 3, -8
	.cfi_offset 14, -4
	.loc 28 2072 0
	movt	r0, #:upper16:.LC44
	movt	r1, #:upper16:.LC30
	movw	r2, #2073
	ldr	r3, .L725
	bl	_assert_fail
.LVL683:
.L726:
	.align	2
.L725:
	.word	.LANCHOR4+808
	.cfi_endproc
.LFE791:
	.size	cap_page_table_cap_get_capPTMappedAddress.part.100, .-cap_page_table_cap_get_capPTMappedAddress.part.100
	.align	2
	.type	cap_page_table_cap_get_capPTIsMapped.part.101, %function
cap_page_table_cap_get_capPTIsMapped.part.101:
.LFB792:
	.loc 28 2005 0
	.cfi_startproc
	@ Volatile: function does not return.
	@ args = 0, pretend = 0, frame = 0
	@ frame_needed = 0, uses_anonymous_args = 0
	.loc 28 2007 0
	movw	r0, #:lower16:.LC44
	movw	r1, #:lower16:.LC30
	.loc 28 2005 0
	stmfd	sp!, {r3, lr}
	.cfi_def_cfa_offset 8
	.cfi_offset 3, -8
	.cfi_offset 14, -4
	.loc 28 2007 0
	movt	r0, #:upper16:.LC44
	movt	r1, #:upper16:.LC30
	movw	r2, #2008
	ldr	r3, .L729
	bl	_assert_fail
.LVL684:
.L730:
	.align	2
.L729:
	.word	.LANCHOR4+852
	.cfi_endproc
.LFE792:
	.size	cap_page_table_cap_get_capPTIsMapped.part.101, .-cap_page_table_cap_get_capPTIsMapped.part.101
	.align	2
	.type	pde_pde_coarse_new.part.102, %function
pde_pde_coarse_new.part.102:
.LFB793:
	.loc 28 839 0
	.cfi_startproc
	@ Volatile: function does not return.
	@ args = 0, pretend = 0, frame = 0
	@ frame_needed = 0, uses_anonymous_args = 0
.LVL685:
	.loc 28 845 0
	movw	r0, #:lower16:.LC49
	movw	r1, #:lower16:.LC30
	.loc 28 839 0
	stmfd	sp!, {r3, lr}
	.cfi_def_cfa_offset 8
	.cfi_offset 3, -8
	.cfi_offset 14, -4
	.loc 28 845 0
	movt	r0, #:upper16:.LC49
	movt	r1, #:upper16:.LC30
	movw	r2, #845
	ldr	r3, .L733
	bl	_assert_fail
.LVL686:
.L734:
	.align	2
.L733:
	.word	.LANCHOR4+892
	.cfi_endproc
.LFE793:
	.size	pde_pde_coarse_new.part.102, .-pde_pde_coarse_new.part.102
	.align	2
	.type	cap_small_frame_cap_get_capFMappedAddress.part.104, %function
cap_small_frame_cap_get_capFMappedAddress.part.104:
.LFB795:
	.loc 28 1701 0
	.cfi_startproc
	@ Volatile: function does not return.
	@ args = 0, pretend = 0, frame = 0
	@ frame_needed = 0, uses_anonymous_args = 0
	.loc 28 1703 0
	movw	r0, #:lower16:.LC40
	movw	r1, #:lower16:.LC30
	.loc 28 1701 0
	stmfd	sp!, {r3, lr}
	.cfi_def_cfa_offset 8
	.cfi_offset 3, -8
	.cfi_offset 14, -4
	.loc 28 1703 0
	movt	r0, #:upper16:.LC40
	movt	r1, #:upper16:.LC30
	movw	r2, #1704
	ldr	r3, .L737
	bl	_assert_fail
.LVL687:
.L738:
	.align	2
.L737:
	.word	.LANCHOR4+912
	.cfi_endproc
.LFE795:
	.size	cap_small_frame_cap_get_capFMappedAddress.part.104, .-cap_small_frame_cap_get_capFMappedAddress.part.104
	.align	2
	.type	cap_frame_cap_get_capFMappedAddress.part.105, %function
cap_frame_cap_get_capFMappedAddress.part.105:
.LFB796:
	.loc 28 1865 0
	.cfi_startproc
	@ Volatile: function does not return.
	@ args = 0, pretend = 0, frame = 0
	@ frame_needed = 0, uses_anonymous_args = 0
	.loc 28 1867 0
	movw	r0, #:lower16:.LC41
	movw	r1, #:lower16:.LC30
	.loc 28 1865 0
	stmfd	sp!, {r3, lr}
	.cfi_def_cfa_offset 8
	.cfi_offset 3, -8
	.cfi_offset 14, -4
	.loc 28 1867 0
	movt	r0, #:upper16:.LC41
	movt	r1, #:upper16:.LC30
	movw	r2, #1868
	ldr	r3, .L741
	bl	_assert_fail
.LVL688:
.L742:
	.align	2
.L741:
	.word	.LANCHOR4+956
	.cfi_endproc
.LFE796:
	.size	cap_frame_cap_get_capFMappedAddress.part.105, .-cap_frame_cap_get_capFMappedAddress.part.105
	.align	2
	.type	generic_frame_cap_get_capFMappedAddress.part.106, %function
generic_frame_cap_get_capFMappedAddress.part.106:
.LFB797:
	.loc 38 250 0
	.cfi_startproc
	@ Volatile: function does not return.
	@ args = 0, pretend = 0, frame = 0
	@ frame_needed = 0, uses_anonymous_args = 0
	.loc 38 255 0
	movw	r0, #:lower16:.LC42
	movw	r1, #:lower16:.LC43
	.loc 38 250 0
	stmfd	sp!, {r3, lr}
	.cfi_def_cfa_offset 8
	.cfi_offset 3, -8
	.cfi_offset 14, -4
	.loc 38 255 0
	movt	r0, #:upper16:.LC42
	movt	r1, #:upper16:.LC43
	mov	r2, #256
	ldr	r3, .L745
	bl	_assert_fail
.LVL689:
.L746:
	.align	2
.L745:
	.word	.LANCHOR4+992
	.cfi_endproc
.LFE797:
	.size	generic_frame_cap_get_capFMappedAddress.part.106, .-generic_frame_cap_get_capFMappedAddress.part.106
	.align	2
	.type	cap_small_frame_cap_get_capFMappedASID.part.108, %function
cap_small_frame_cap_get_capFMappedASID.part.108:
.LFB799:
	.loc 38 114 0
	.cfi_startproc
	@ Volatile: function does not return.
	@ args = 0, pretend = 0, frame = 0
	@ frame_needed = 0, uses_anonymous_args = 0
.LBB4706:
.LBB4707:
	.loc 28 1651 0
	movw	r0, #:lower16:.LC40
	movw	r1, #:lower16:.LC30
.LBE4707:
.LBE4706:
	.loc 38 114 0
	stmfd	sp!, {r3, lr}
	.cfi_def_cfa_offset 8
	.cfi_offset 3, -8
	.cfi_offset 14, -4
.LBB4709:
.LBB4708:
	.loc 28 1651 0
	movt	r0, #:upper16:.LC40
	movt	r1, #:upper16:.LC30
	movw	r2, #1652
	ldr	r3, .L749
	bl	_assert_fail
.LVL690:
.L750:
	.align	2
.L749:
	.word	.LANCHOR4+1032
.LBE4708:
.LBE4709:
	.cfi_endproc
.LFE799:
	.size	cap_small_frame_cap_get_capFMappedASID.part.108, .-cap_small_frame_cap_get_capFMappedASID.part.108
	.align	2
	.type	generic_frame_cap_get_capFMappedASID.part.110, %function
generic_frame_cap_get_capFMappedASID.part.110:
.LFB801:
	.loc 38 137 0
	.cfi_startproc
	@ Volatile: function does not return.
	@ args = 0, pretend = 0, frame = 0
	@ frame_needed = 0, uses_anonymous_args = 0
	.loc 38 143 0
	movw	r0, #:lower16:.LC42
	movw	r1, #:lower16:.LC43
	.loc 38 137 0
	stmfd	sp!, {r3, lr}
	.cfi_def_cfa_offset 8
	.cfi_offset 3, -8
	.cfi_offset 14, -4
	.loc 38 143 0
	movt	r0, #:upper16:.LC42
	movt	r1, #:upper16:.LC43
	mov	r2, #144
	ldr	r3, .L753
	bl	_assert_fail
.LVL691:
.L754:
	.align	2
.L753:
	.word	.LANCHOR4+1076
	.cfi_endproc
.LFE801:
	.size	generic_frame_cap_get_capFMappedASID.part.110, .-generic_frame_cap_get_capFMappedASID.part.110
	.align	2
	.type	pde_pde_coarse_ptr_get_address.part.111, %function
pde_pde_coarse_ptr_get_address.part.111:
.LFB802:
	.loc 28 875 0
	.cfi_startproc
	@ Volatile: function does not return.
	@ args = 0, pretend = 0, frame = 0
	@ frame_needed = 0, uses_anonymous_args = 0
.LVL692:
	.loc 28 877 0
	movw	r0, #:lower16:.LC50
	movw	r1, #:lower16:.LC30
	.loc 28 875 0
	stmfd	sp!, {r3, lr}
	.cfi_def_cfa_offset 8
	.cfi_offset 3, -8
	.cfi_offset 14, -4
	.loc 28 877 0
	movt	r0, #:upper16:.LC50
	movt	r1, #:upper16:.LC30
	movw	r2, #878
	ldr	r3, .L757
	bl	_assert_fail
.LVL693:
.L758:
	.align	2
.L757:
	.word	.LANCHOR4+1116
	.cfi_endproc
.LFE802:
	.size	pde_pde_coarse_ptr_get_address.part.111, .-pde_pde_coarse_ptr_get_address.part.111
	.text
	.align	2
	.global	lookupPTSlot
	.type	lookupPTSlot, %function
lookupPTSlot:
.LFB329:
	.loc 14 399 0
	.cfi_startproc
	@ args = 0, pretend = 0, frame = 0
	@ frame_needed = 0, uses_anonymous_args = 0
	@ link register save eliminated.
.LVL694:
.LBB4732:
.LBB4733:
	.loc 14 439 0
	mov	r3, r2, lsr #20
.LBE4733:
.LBE4732:
.LBB4734:
.LBB4735:
	.loc 28 788 0
	ldr	r3, [r1, r3, asl #2]
	and	r1, r3, #3
.LVL695:
.LBE4735:
.LBE4734:
	.loc 14 405 0
	cmp	r1, #1
	bne	.L762
.LVL696:
.LBB4736:
.LBB4737:
.LBB4738:
	.loc 28 880 0
	bic	r3, r3, #1020
.LVL697:
.LBE4738:
.LBE4737:
	.loc 14 416 0
	ubfx	r2, r2, #12, #8
.LVL698:
.LBB4740:
.LBB4739:
	.loc 28 880 0
	bic	r3, r3, #3
.LBE4739:
.LBE4740:
	.loc 14 421 0
	mov	r1, #0
.LBB4741:
.LBB4742:
	.loc 3 45 0
	add	r3, r3, #-536870912
.LBE4742:
.LBE4741:
	.loc 14 421 0
	str	r1, [r0]
	.loc 14 417 0
	add	r3, r3, r2, asl #2
	.loc 14 421 0
	str	r3, [r0, #4]
.LBE4736:
	.loc 14 423 0
	bx	lr
.LVL699:
.L762:
.LBB4743:
.LBB4744:
	.loc 14 406 0
	movw	r3, #:lower16:current_lookup_fault
	mov	r2, #0
.LVL700:
	movt	r3, #:upper16:current_lookup_fault
	mov	ip, #81
	.loc 14 410 0
	mov	r1, #2
	.loc 14 406 0
	str	ip, [r3]
	str	r2, [r3, #4]
.LVL701:
	.loc 14 410 0
	stmia	r0, {r1, r2}
	bx	lr
.LBE4744:
.LBE4743:
	.cfi_endproc
.LFE329:
	.size	lookupPTSlot, .-lookupPTSlot
	.section	.text.unlikely
	.align	2
	.type	pte_pte_small_new.part.113, %function
pte_pte_small_new.part.113:
.LFB804:
	.loc 28 2478 0
	.cfi_startproc
	@ Volatile: function does not return.
	@ args = 0, pretend = 0, frame = 0
	@ frame_needed = 0, uses_anonymous_args = 0
.LVL702:
	.loc 28 2484 0
	movw	r0, #:lower16:.LC51
	movw	r1, #:lower16:.LC30
	.loc 28 2478 0
	stmfd	sp!, {r3, lr}
	.cfi_def_cfa_offset 8
	.cfi_offset 3, -8
	.cfi_offset 14, -4
	.loc 28 2484 0
	movt	r0, #:upper16:.LC51
	movt	r1, #:upper16:.LC30
	movw	r2, #2484
	ldr	r3, .L765
	bl	_assert_fail
.LVL703:
.L766:
	.align	2
.L765:
	.word	.LANCHOR4+1148
	.cfi_endproc
.LFE804:
	.size	pte_pte_small_new.part.113, .-pte_pte_small_new.part.113
	.align	2
	.type	pde_pde_section_new.part.115, %function
pde_pde_section_new.part.115:
.LFB806:
	.loc 28 889 0
	.cfi_startproc
	@ Volatile: function does not return.
	@ args = 0, pretend = 0, frame = 0
	@ frame_needed = 0, uses_anonymous_args = 0
.LVL704:
	.loc 28 895 0
	movw	r0, #:lower16:.LC52
	movw	r1, #:lower16:.LC30
	.loc 28 889 0
	stmfd	sp!, {r3, lr}
	.cfi_def_cfa_offset 8
	.cfi_offset 3, -8
	.cfi_offset 14, -4
	.loc 28 895 0
	movt	r0, #:upper16:.LC52
	movt	r1, #:upper16:.LC30
	movw	r2, #895
	ldr	r3, .L769
	bl	_assert_fail
.LVL705:
.L770:
	.align	2
.L769:
	.word	.LANCHOR4+1168
	.cfi_endproc
.LFE806:
	.size	pde_pde_section_new.part.115, .-pde_pde_section_new.part.115
	.align	2
	.type	vm_attributes_new.part.116, %function
vm_attributes_new.part.116:
.LFB807:
	.loc 28 306 0
	.cfi_startproc
	@ Volatile: function does not return.
	@ args = 0, pretend = 0, frame = 0
	@ frame_needed = 0, uses_anonymous_args = 0
.LVL706:
	.loc 28 312 0
	movw	r0, #:lower16:.LC53
	movw	r1, #:lower16:.LC30
	.loc 28 306 0
	stmfd	sp!, {r3, lr}
	.cfi_def_cfa_offset 8
	.cfi_offset 3, -8
	.cfi_offset 14, -4
	.loc 28 312 0
	movt	r0, #:upper16:.LC53
	movt	r1, #:upper16:.LC30
	mov	r2, #312
	ldr	r3, .L773
	bl	_assert_fail
.LVL707:
.L774:
	.align	2
.L773:
	.word	.LANCHOR4+1188
	.cfi_endproc
.LFE807:
	.size	vm_attributes_new.part.116, .-vm_attributes_new.part.116
	.align	2
	.type	cap_small_frame_cap_get_capFVMRights.part.117, %function
cap_small_frame_cap_get_capFVMRights.part.117:
.LFB808:
	.loc 28 1675 0
	.cfi_startproc
	@ Volatile: function does not return.
	@ args = 0, pretend = 0, frame = 0
	@ frame_needed = 0, uses_anonymous_args = 0
	.loc 28 1677 0
	movw	r0, #:lower16:.LC40
	movw	r1, #:lower16:.LC30
	.loc 28 1675 0
	stmfd	sp!, {r3, lr}
	.cfi_def_cfa_offset 8
	.cfi_offset 3, -8
	.cfi_offset 14, -4
	.loc 28 1677 0
	movt	r0, #:upper16:.LC40
	movt	r1, #:upper16:.LC30
	movw	r2, #1678
	ldr	r3, .L777
	bl	_assert_fail
.LVL708:
.L778:
	.align	2
.L777:
	.word	.LANCHOR4+1208
	.cfi_endproc
.LFE808:
	.size	cap_small_frame_cap_get_capFVMRights.part.117, .-cap_small_frame_cap_get_capFVMRights.part.117
	.align	2
	.type	cap_frame_cap_get_capFVMRights.part.118, %function
cap_frame_cap_get_capFVMRights.part.118:
.LFB809:
	.loc 28 1839 0
	.cfi_startproc
	@ Volatile: function does not return.
	@ args = 0, pretend = 0, frame = 0
	@ frame_needed = 0, uses_anonymous_args = 0
	.loc 28 1841 0
	movw	r0, #:lower16:.LC41
	movw	r1, #:lower16:.LC30
	.loc 28 1839 0
	stmfd	sp!, {r3, lr}
	.cfi_def_cfa_offset 8
	.cfi_offset 3, -8
	.cfi_offset 14, -4
	.loc 28 1841 0
	movt	r0, #:upper16:.LC41
	movt	r1, #:upper16:.LC30
	movw	r2, #1842
	ldr	r3, .L781
	bl	_assert_fail
.LVL709:
.L782:
	.align	2
.L781:
	.word	.LANCHOR4+1248
	.cfi_endproc
.LFE809:
	.size	cap_frame_cap_get_capFVMRights.part.118, .-cap_frame_cap_get_capFVMRights.part.118
	.align	2
	.type	generic_frame_cap_get_capFVMRights.part.119, %function
generic_frame_cap_get_capFVMRights.part.119:
.LFB810:
	.loc 38 181 0
	.cfi_startproc
	@ Volatile: function does not return.
	@ args = 0, pretend = 0, frame = 0
	@ frame_needed = 0, uses_anonymous_args = 0
	.loc 38 186 0
	movw	r0, #:lower16:.LC42
	movw	r1, #:lower16:.LC43
	.loc 38 181 0
	stmfd	sp!, {r3, lr}
	.cfi_def_cfa_offset 8
	.cfi_offset 3, -8
	.cfi_offset 14, -4
	.loc 38 186 0
	movt	r0, #:upper16:.LC42
	movt	r1, #:upper16:.LC43
	mov	r2, #187
	ldr	r3, .L785
	bl	_assert_fail
.LVL710:
.L786:
	.align	2
.L785:
	.word	.LANCHOR4+1280
	.cfi_endproc
.LFE810:
	.size	generic_frame_cap_get_capFVMRights.part.119, .-generic_frame_cap_get_capFVMRights.part.119
	.text
	.align	2
	.global	Arch_hasRecycleRights
	.type	Arch_hasRecycleRights, %function
Arch_hasRecycleRights:
.LFB458:
	.loc 23 256 0
	.cfi_startproc
	@ args = 0, pretend = 0, frame = 8
	@ frame_needed = 0, uses_anonymous_args = 0
	str	lr, [sp, #-4]!
	.cfi_def_cfa_offset 4
	.cfi_offset 14, -4
	sub	sp, sp, #12
	.cfi_def_cfa_offset 16
	.loc 23 256 0
	add	r3, sp, #8
	stmdb	r3, {r0, r1}
	ldr	r2, [sp]
.LVL711:
.LBB4755:
.LBB4756:
	.loc 28 1035 0
	and	r3, r2, #14
	cmp	r3, #14
	beq	.L788
	.loc 28 1036 0
	and	r3, r2, #15
.LBE4756:
.LBE4755:
	.loc 23 257 0
	cmp	r3, #1
	beq	.L791
.L820:
	cmp	r3, #3
	.loc 23 263 0
	movne	r0, #1
	.loc 23 257 0
	beq	.L791
	.loc 23 265 0
	add	sp, sp, #12
	.cfi_remember_state
	.cfi_def_cfa_offset 4
	@ sp needed
	ldr	pc, [sp], #4
.L788:
	.cfi_restore_state
.LBB4758:
.LBB4757:
	.loc 28 1037 0
	uxtb	r3, r2
.LBE4757:
.LBE4758:
	.loc 23 257 0
	cmp	r3, #1
	bne	.L820
.L791:
.LBB4759:
.LBB4760:
	.loc 38 186 0
	and	r1, r3, #253
	ldr	r0, [sp, #4]
.LVL712:
	cmp	r1, #1
	bne	.L823
	.loc 38 189 0
	cmp	r3, #1
	beq	.L794
	cmp	r3, #3
	bne	.L824
.LVL713:
.LBB4761:
.LBB4762:
	.loc 28 1841 0
	and	r2, r2, #15
.LVL714:
	cmp	r2, #3
	bne	.L825
.LVL715:
	.loc 28 1844 0
	ubfx	r0, r0, #18, #2
.LVL716:
	sub	r0, r0, #3
	clz	r0, r0
	mov	r0, r0, lsr #5
.LBE4762:
.LBE4761:
.LBE4760:
.LBE4759:
	.loc 23 265 0
	add	sp, sp, #12
	.cfi_remember_state
	.cfi_def_cfa_offset 4
.LVL717:
	@ sp needed
	ldr	pc, [sp], #4
.LVL718:
.L794:
	.cfi_restore_state
.LBB4772:
.LBB4769:
.LBB4764:
.LBB4765:
	.loc 28 1677 0
	and	r2, r2, #15
.LVL719:
	cmp	r2, #1
	bne	.L826
.LVL720:
	.loc 28 1680 0
	ubfx	r0, r0, #20, #2
.LVL721:
	sub	r0, r0, #3
	clz	r0, r0
	mov	r0, r0, lsr #5
.LBE4765:
.LBE4764:
.LBE4769:
.LBE4772:
	.loc 23 265 0
	add	sp, sp, #12
	.cfi_remember_state
	.cfi_def_cfa_offset 4
.LVL722:
	@ sp needed
	ldr	pc, [sp], #4
.LVL723:
.L824:
	.cfi_restore_state
.LBB4773:
.LBB4770:
	.loc 38 189 0
	mov	r0, #0
.LVL724:
.LBE4770:
.LBE4773:
	.loc 23 265 0
	add	sp, sp, #12
	.cfi_remember_state
	.cfi_def_cfa_offset 4
	@ sp needed
	ldr	pc, [sp], #4
.LVL725:
.L823:
	.cfi_restore_state
.LBB4774:
.LBB4771:
	bl	generic_frame_cap_get_capFVMRights.part.119
.LVL726:
.L825:
.LBB4767:
.LBB4763:
	bl	cap_frame_cap_get_capFVMRights.part.118
.LVL727:
.L826:
.LBE4763:
.LBE4767:
.LBB4768:
.LBB4766:
	bl	cap_small_frame_cap_get_capFVMRights.part.117
.LVL728:
.LBE4766:
.LBE4768:
.LBE4771:
.LBE4774:
	.cfi_endproc
.LFE458:
	.size	Arch_hasRecycleRights, .-Arch_hasRecycleRights
	.section	.text.unlikely
	.align	2
	.type	cap_frame_cap_get_capFSize.part.120, %function
cap_frame_cap_get_capFSize.part.120:
.LFB811:
	.loc 28 1799 0
	.cfi_startproc
	@ Volatile: function does not return.
	@ args = 0, pretend = 0, frame = 0
	@ frame_needed = 0, uses_anonymous_args = 0
	.loc 28 1801 0
	movw	r0, #:lower16:.LC41
	movw	r1, #:lower16:.LC30
	.loc 28 1799 0
	stmfd	sp!, {r3, lr}
	.cfi_def_cfa_offset 8
	.cfi_offset 3, -8
	.cfi_offset 14, -4
	.loc 28 1801 0
	movt	r0, #:upper16:.LC41
	movt	r1, #:upper16:.LC30
	movw	r2, #1802
	ldr	r3, .L829
	bl	_assert_fail
.LVL729:
.L830:
	.align	2
.L829:
	.word	.LANCHOR4+1316
	.cfi_endproc
.LFE811:
	.size	cap_frame_cap_get_capFSize.part.120, .-cap_frame_cap_get_capFSize.part.120
	.align	2
	.type	generic_frame_cap_get_capFSize.part.121, %function
generic_frame_cap_get_capFSize.part.121:
.LFB812:
	.loc 38 223 0
	.cfi_startproc
	@ Volatile: function does not return.
	@ args = 0, pretend = 0, frame = 0
	@ frame_needed = 0, uses_anonymous_args = 0
	.loc 38 228 0
	movw	r0, #:lower16:.LC42
	movw	r1, #:lower16:.LC43
	.loc 38 223 0
	stmfd	sp!, {r3, lr}
	.cfi_def_cfa_offset 8
	.cfi_offset 3, -8
	.cfi_offset 14, -4
	.loc 38 228 0
	movt	r0, #:upper16:.LC42
	movt	r1, #:upper16:.LC43
	mov	r2, #229
	ldr	r3, .L833
	bl	_assert_fail
.LVL730:
.L834:
	.align	2
.L833:
	.word	.LANCHOR4+1344
	.cfi_endproc
.LFE812:
	.size	generic_frame_cap_get_capFSize.part.121, .-generic_frame_cap_get_capFSize.part.121
	.text
	.align	2
	.global	lookupIPCBuffer
	.type	lookupIPCBuffer, %function
lookupIPCBuffer:
.LFB327:
	.loc 14 340 0
	.cfi_startproc
	@ args = 0, pretend = 0, frame = 8
	@ frame_needed = 0, uses_anonymous_args = 0
.LVL731:
	.loc 14 346 0
	bic	r3, r1, #508
	.loc 14 340 0
	stmfd	sp!, {r4, r5, lr}
	.cfi_def_cfa_offset 12
	.cfi_offset 4, -12
	.cfi_offset 5, -8
	.cfi_offset 14, -4
	.loc 14 346 0
	bic	r3, r3, #3
	.loc 14 340 0
	mov	r5, r0
	.loc 14 346 0
	add	r3, r3, #64
	.loc 14 340 0
	sub	sp, sp, #12
	.cfi_def_cfa_offset 24
	.loc 14 345 0
	ldr	lr, [r1, #120]
.LVL732:
	.loc 14 346 0
	add	r2, sp, #8
	ldmia	r3, {r0, r1}
.LVL733:
	stmdb	r2, {r0, r1}
.LVL734:
.LBB4804:
.LBB4805:
	.loc 28 1035 0
	and	r1, r0, #14
	cmp	r1, #14
.LBE4805:
.LBE4804:
	.loc 14 346 0
	mov	r3, r0
.LVL735:
.LBB4807:
.LBB4806:
	.loc 28 1035 0
	beq	.L836
.LBE4806:
.LBE4807:
	.loc 14 348 0
	and	r2, r0, #13
	cmp	r2, #1
	ldreq	r4, [sp, #4]
.LVL736:
.LBB4808:
.LBB4809:
.LBB4810:
.LBB4811:
	.loc 28 1036 0
	andeq	r0, r0, #15
.LBE4811:
.LBE4810:
.LBE4809:
.LBE4808:
	.loc 14 348 0
	bne	.L879
.L866:
.LVL737:
.LBB4825:
.LBB4820:
	.loc 38 186 0
	and	ip, r0, #253
	cmp	ip, #1
	bne	.L885
	.loc 38 189 0
	cmp	r0, #1
	beq	.L841
	cmp	r0, #3
	bne	.L879
.LVL738:
.LBB4813:
.LBB4814:
	.loc 28 1841 0
	and	ip, r3, #15
	cmp	ip, #3
	.loc 28 1844 0
	ubfxeq	r2, r4, #18, #2
	.loc 28 1841 0
	bne	.L886
.LVL739:
.L844:
.LBE4814:
.LBE4813:
.LBE4820:
.LBE4825:
	.loc 14 354 0
	cmp	r2, #3
	bne	.L887
.L846:
.LVL740:
.LBB4826:
.LBB4827:
.LBB4828:
.LBB4829:
.LBB4830:
	.loc 28 1035 0
	cmp	r1, #14
	.loc 28 1037 0
	uxtbeq	r2, r3
	.loc 28 1036 0
	movne	r2, ip
.LVL741:
.LBE4830:
.LBE4829:
	.loc 38 207 0
	and	r0, r2, #253
.LVL742:
	cmp	r0, #1
	bne	.L888
	.loc 38 210 0
	cmp	r2, #1
	beq	.L851
	cmp	r2, #3
	bne	.L889
.LVL743:
.LBB4831:
.LBB4832:
	.loc 28 1919 0
	cmp	ip, #3
	.loc 28 1922 0
	biceq	r0, r3, #-268435441
	biceq	r0, r0, #264241152
	moveq	r0, r0, asl #10
	.loc 28 1919 0
	bne	.L890
.LVL744:
.L850:
.LBE4832:
.LBE4831:
.LBE4828:
.LBE4827:
.LBB4840:
.LBB4841:
.LBB4842:
.LBB4843:
	.loc 28 1035 0
	cmp	r1, #14
	.loc 28 1037 0
	uxtbeq	r3, r3
	.loc 28 1036 0
	movne	r3, ip
.LVL745:
.LBE4843:
.LBE4842:
	.loc 38 228 0
	and	r2, r3, #253
.LVL746:
	cmp	r2, #1
	bne	.L891
	.loc 38 231 0
	cmp	r3, #3
	beq	.L892
.LVL747:
.L873:
.LBE4841:
.LBE4840:
.LBB4850:
.LBB4851:
	.loc 37 113 0
	movw	r3, #4095
.LVL748:
.L858:
.LBE4851:
.LBE4850:
	.loc 14 361 0
	and	r3, r3, lr
	add	r0, r3, r0
.LBE4826:
	.loc 14 365 0
	add	sp, sp, #12
	.cfi_remember_state
	.cfi_def_cfa_offset 12
	@ sp needed
	ldmfd	sp!, {r4, r5, pc}
.LVL749:
.L836:
	.cfi_restore_state
	.loc 14 348 0
	and	r2, r0, #253
	cmp	r2, #1
	ldreq	r4, [sp, #4]
.LVL750:
.LBB4863:
.LBB4821:
.LBB4816:
.LBB4812:
	.loc 28 1037 0
	uxtbeq	r0, r0
.LBE4812:
.LBE4816:
.LBE4821:
.LBE4863:
	.loc 14 348 0
	beq	.L866
.L879:
	.loc 14 363 0
	mov	r0, #0
.L882:
	.loc 14 365 0
	add	sp, sp, #12
	.cfi_remember_state
	.cfi_def_cfa_offset 12
	@ sp needed
	ldmfd	sp!, {r4, r5, pc}
.LVL751:
.L892:
	.cfi_restore_state
.LBB4864:
.LBB4856:
.LBB4848:
.LBB4844:
.LBB4845:
	.loc 28 1801 0
	cmp	ip, #3
	bne	.L893
.LVL752:
	.loc 28 1804 0
	mov	r4, r4, lsr #30
.LVL753:
.LBE4845:
.LBE4844:
.LBE4848:
.LBE4856:
.LBB4857:
.LBB4854:
	.loc 37 113 0
	cmp	r4, #3
	ldrls	pc, [pc, r4, asl #2]
	b	.L861
.L862:
	.word	.L873
	.word	.L863
	.word	.L864
	.word	.L865
.LVL754:
.L841:
.LBE4854:
.LBE4857:
.LBE4864:
.LBB4865:
.LBB4822:
.LBB4817:
.LBB4818:
	.loc 28 1677 0
	and	ip, r3, #15
	cmp	ip, #1
	.loc 28 1680 0
	ubfxeq	r2, r4, #20, #2
	.loc 28 1677 0
	beq	.L844
	bl	cap_small_frame_cap_get_capFVMRights.part.117
.LVL755:
.L889:
.LBE4818:
.LBE4817:
.LBE4822:
.LBE4865:
.LBB4866:
.LBB4858:
.LBB4837:
	.loc 38 218 0
	mov	r0, #0
	b	.L850
.L851:
.LVL756:
.LBB4834:
.LBB4835:
	.loc 28 1755 0
	cmp	ip, #1
	.loc 28 1758 0
	biceq	r0, r3, #-16777216
	biceq	r0, r0, #15
	moveq	r0, r0, asl #8
	.loc 28 1755 0
	beq	.L850
	bl	cap_small_frame_cap_get_capFBasePtr.isra.85.part.86
.LVL757:
.L865:
.LBE4835:
.LBE4834:
.LBE4837:
.LBE4858:
.LBB4859:
.LBB4855:
	mvn	r3, #-16777216
.LVL758:
	b	.L858
.LVL759:
.L864:
	movw	r3, #65535
.LVL760:
	movt	r3, 15
	b	.L858
.LVL761:
.L863:
	.loc 37 113 0
	movw	r3, #65535
.LVL762:
	b	.L858
.LVL763:
.L861:
.LBB4852:
.LBB4853:
	.loc 37 127 0
	movw	r0, #:lower16:.LC26
	movw	r1, #:lower16:.LC27
	movt	r0, #:upper16:.LC26
	movt	r1, #:upper16:.LC27
	mov	r2, #127
	ldr	r3, .L894
.LVL764:
	bl	_fail
.LVL765:
.L885:
.LBE4853:
.LBE4852:
.LBE4855:
.LBE4859:
.LBE4866:
.LBB4867:
.LBB4823:
	bl	generic_frame_cap_get_capFVMRights.part.119
.LVL766:
.L888:
.LBE4823:
.LBE4867:
.LBB4868:
.LBB4860:
.LBB4838:
	bl	generic_frame_cap_get_capFBasePtr.isra.89.part.90
.LVL767:
.L891:
.LBE4838:
.LBE4860:
.LBB4861:
.LBB4849:
	bl	generic_frame_cap_get_capFSize.part.121
.LVL768:
.L893:
.LBB4847:
.LBB4846:
	bl	cap_frame_cap_get_capFSize.part.120
.LVL769:
.L886:
.LBE4846:
.LBE4847:
.LBE4849:
.LBE4861:
.LBE4868:
.LBB4869:
.LBB4824:
.LBB4819:
.LBB4815:
	bl	cap_frame_cap_get_capFVMRights.part.118
.LVL770:
.L890:
.LBE4815:
.LBE4819:
.LBE4824:
.LBE4869:
.LBB4870:
.LBB4862:
.LBB4839:
.LBB4836:
.LBB4833:
	bl	cap_frame_cap_get_capFBasePtr.isra.87.part.88
.LVL771:
.L887:
.LBE4833:
.LBE4836:
.LBE4839:
.LBE4862:
.LBE4870:
	.loc 14 354 0 discriminator 1
	cmp	r2, #2
	cmpeq	r5, #0
	moveq	r2, #1
	movne	r2, #0
	beq	.L846
	.loc 14 350 0
	mov	r0, r2
.LVL772:
	b	.L882
.L895:
	.align	2
.L894:
	.word	.LANCHOR4+72
	.cfi_endproc
.LFE327:
	.size	lookupIPCBuffer, .-lookupIPCBuffer
	.align	2
	.global	handleFaultReply
	.type	handleFaultReply, %function
handleFaultReply:
.LFB287:
	.file 40 "/home/neelesh/research/seL4-tutorials-manifest/kernel/src/arch/arm/api/faults.c"
	.loc 40 19 0
	.cfi_startproc
	@ args = 0, pretend = 0, frame = 0
	@ frame_needed = 0, uses_anonymous_args = 0
.LVL773:
	stmfd	sp!, {r4, r5, r6, r7, r8, lr}
	.cfi_def_cfa_offset 24
	.cfi_offset 4, -24
	.cfi_offset 5, -20
	.cfi_offset 6, -16
	.cfi_offset 7, -12
	.cfi_offset 8, -8
	.cfi_offset 14, -4
	.loc 40 19 0
	mov	r7, r1
.LVL774:
.LBB4871:
.LBB4872:
	.loc 13 27 0
	ldr	r4, [r1, #4]
.LVL775:
.LBE4872:
.LBE4871:
	.loc 40 19 0
	mov	r6, r0
.LBB4873:
.LBB4874:
	.loc 28 566 0
	ldr	r3, [r0, #88]
.LBE4874:
.LBE4873:
.LBB4876:
.LBB4877:
.LBB4878:
.LBB4879:
	.file 41 "./api/types_gen.h"
	.loc 41 89 0
	and	r5, r4, #127
.LVL776:
.LBE4879:
.LBE4878:
	.loc 29 88 0
	cmp	r5, #120
.LBB4880:
.LBB4881:
	.loc 41 101 0
	bichi	r4, r4, #127
.LVL777:
	movhi	r5, #120
.LVL778:
.LBE4881:
.LBE4880:
.LBE4877:
.LBE4876:
.LBB4885:
.LBB4875:
	.loc 28 566 0
	and	r3, r3, #7
.LBE4875:
.LBE4885:
.LBB4886:
.LBB4884:
.LBB4883:
.LBB4882:
	.loc 41 102 0
	orrhi	r4, r4, r5
.LVL779:
.LBE4882:
.LBE4883:
.LBE4884:
.LBE4886:
	.loc 40 31 0
	sub	r3, r3, #1
.LBB4887:
.LBB4888:
	.loc 41 38 0
	mov	r4, r4, lsr #12
.LVL780:
.LBE4888:
.LBE4887:
	.loc 40 31 0
	cmp	r3, #3
	ldrls	pc, [pc, r3, asl #2]
	b	.L898
.LVL781:
.L900:
	.word	.L913
	.word	.L913
	.word	.L901
	.word	.L902
.L913:
	.loc 40 33 0
	mov	r0, #1
.LVL782:
	.loc 40 80 0
	ldmfd	sp!, {r4, r5, r6, r7, r8, pc}
.LVL783:
.L901:
.LBB4889:
	.loc 40 44 0
	mov	r0, #0
.LVL784:
	bl	lookupIPCBuffer
.LVL785:
	.loc 40 47 0
	cmp	r5, #0
	beq	.L904
	ldr	r2, .L923
	mov	r3, #0
	mov	r8, r2
	sub	lr, r2, #1376
.LVL786:
.L906:
	.loc 40 49 0 discriminator 3
	ldr	r1, [lr], #4
	.loc 40 47 0 discriminator 3
	add	r3, r3, #1
.LVL787:
	.loc 40 48 0 discriminator 3
	ldr	ip, [r8], #4
.LVL788:
.LBB4890:
.LBB4891:
	.loc 13 27 0 discriminator 3
	ldr	r1, [r7, r1, asl #2]
.LVL789:
.LBE4891:
.LBE4890:
.LBB4892:
.LBB4893:
	.file 42 "/home/neelesh/research/seL4-tutorials-manifest/kernel/include/arch/arm/arch/machine/registerset.h"
	.loc 42 123 0 discriminator 3
	cmp	ip, #16
	.loc 42 124 0 discriminator 3
	andeq	r1, r1, #-134217728
.LVL790:
	orreq	r1, r1, #80
.LVL791:
.LBE4893:
.LBE4892:
	.loc 40 47 0 discriminator 3
	cmp	r3, #3
	cmpls	r3, r5
.LBB4894:
.LBB4895:
	.loc 13 21 0 discriminator 3
	str	r1, [r6, ip, asl #2]
.LVL792:
.LBE4895:
.LBE4894:
	.loc 40 47 0 discriminator 3
	bcc	.L906
	.loc 40 53 0
	cmp	r0, #0
	beq	.L904
	.loc 40 54 0 discriminator 1
	cmp	r3, r5
	bcs	.L904
	sub	ip, r3, #-1073741823
.LVL793:
	mov	ip, ip, asl #2
	add	r1, ip, #4
.LVL794:
	add	ip, r2, ip
	add	r0, r0, r1
.LVL795:
.L909:
	.loc 40 55 0 discriminator 2
	ldr	r1, [ip, #4]!
.LVL796:
	.loc 40 56 0 discriminator 2
	add	r3, r3, #1
.LVL797:
	ldr	r2, [r0, #4]!
.LVL798:
.LBB4896:
.LBB4897:
	.loc 42 123 0 discriminator 2
	cmp	r1, #16
	.loc 42 124 0 discriminator 2
	andeq	r2, r2, #-134217728
.LVL799:
	orreq	r2, r2, #80
.LVL800:
.LBE4897:
.LBE4896:
	.loc 40 54 0 discriminator 2
	cmp	r3, #11
	cmpls	r3, r5
.LBB4898:
.LBB4899:
	.loc 13 21 0 discriminator 2
	str	r2, [r6, r1, asl #2]
.LVL801:
.LBE4899:
.LBE4898:
	.loc 40 54 0 discriminator 2
	bcc	.L909
.LVL802:
.L904:
.LBE4889:
	.loc 40 61 0
	clz	r0, r4
	mov	r0, r0, lsr #5
	ldmfd	sp!, {r4, r5, r6, r7, r8, pc}
.LVL803:
.L902:
.LBB4900:
	.loc 40 69 0 discriminator 1
	cmp	r5, #0
	beq	.L904
	movw	r0, #:lower16:.LANCHOR4
.LVL804:
	.loc 40 69 0 is_stmt 0
	mov	r3, #0
	movt	r0, #:upper16:.LANCHOR4
	add	ip, r0, #1424
.LVL805:
.L903:
.LBB4901:
.LBB4902:
	.loc 13 27 0 is_stmt 1 discriminator 3
	ldr	r2, [r0, r3, asl #2]
.LBE4902:
.LBE4901:
	.loc 40 70 0 discriminator 3
	ldr	r1, [ip, r3, asl #2]
.LVL806:
	.loc 40 69 0 discriminator 3
	add	r3, r3, #1
.LVL807:
.LBB4904:
.LBB4903:
	.loc 13 27 0 discriminator 3
	ldr	r2, [r7, r2, asl #2]
.LVL808:
.LBE4903:
.LBE4904:
.LBB4905:
.LBB4906:
	.loc 42 123 0 discriminator 3
	cmp	r1, #16
	.loc 42 124 0 discriminator 3
	andeq	r2, r2, #-134217728
.LVL809:
	orreq	r2, r2, #80
.LVL810:
.LBE4906:
.LBE4905:
	.loc 40 69 0 discriminator 3
	cmp	r3, #2
	cmpls	r3, r5
.LBB4907:
.LBB4908:
	.loc 13 21 0 discriminator 3
	str	r2, [r6, r1, asl #2]
.LVL811:
.LBE4908:
.LBE4907:
	.loc 40 69 0 discriminator 3
	bcc	.L903
	b	.L904
.LVL812:
.L898:
.LBE4900:
	.loc 40 78 0
	movw	r0, #:lower16:.LC54
.LVL813:
	movw	r1, #:lower16:.LC55
.LVL814:
	movt	r0, #:upper16:.LC54
	movt	r1, #:upper16:.LC55
	mov	r2, #78
	ldr	r3, .L923+4
	bl	_fail
.LVL815:
.L924:
	.align	2
.L923:
	.word	.LANCHOR4+1376
	.word	.LANCHOR4+1436
	.cfi_endproc
.LFE287:
	.size	handleFaultReply, .-handleFaultReply
	.align	2
	.global	Arch_sameRegionAs
	.type	Arch_sameRegionAs, %function
Arch_sameRegionAs:
.LFB459:
	.loc 23 270 0
	.cfi_startproc
	@ args = 0, pretend = 0, frame = 16
	@ frame_needed = 0, uses_anonymous_args = 0
	stmfd	sp!, {r4, r5, lr}
	.cfi_def_cfa_offset 12
	.cfi_offset 4, -12
	.cfi_offset 5, -8
	.cfi_offset 14, -4
	sub	sp, sp, #20
	.cfi_def_cfa_offset 32
	.loc 23 270 0
	add	ip, sp, #16
	stmia	sp, {r2, r3}
	stmdb	ip, {r0, r1}
	mov	r0, r2
	ldr	r1, [sp, #8]
.LVL816:
.LBB4970:
.LBB4971:
	.loc 28 1035 0
	and	r2, r1, #14
	cmp	r2, #14
	.loc 28 1037 0
	uxtbeq	r3, r1
	.loc 28 1036 0
	andne	r3, r1, #15
.LBE4971:
.LBE4970:
	.loc 23 271 0
	sub	r3, r3, #1
	cmp	r3, #10
	ldrls	pc, [pc, r3, asl #2]
	b	.L999
.L930:
	.word	.L929
	.word	.L999
	.word	.L929
	.word	.L999
	.word	.L931
	.word	.L999
	.word	.L932
	.word	.L999
	.word	.L933
	.word	.L999
	.word	.L934
.L931:
.LVL817:
.LBB4972:
.LBB4973:
	.loc 28 1035 0
	and	r3, r0, #14
	cmp	r3, #14
	.loc 28 1037 0
	uxtbeq	r3, r0
	.loc 28 1036 0
	andne	r3, r0, #15
.LBE4973:
.LBE4972:
	.loc 23 306 0
	cmp	r3, #5
	beq	.L1007
.LVL818:
.L999:
	.loc 23 313 0
	mov	r0, #0
.LVL819:
.L928:
	.loc 23 314 0
	add	sp, sp, #20
	.cfi_remember_state
	.cfi_def_cfa_offset 12
.LVL820:
	@ sp needed
	ldmfd	sp!, {r4, r5, pc}
.LVL821:
.L934:
	.cfi_restore_state
.LBB4974:
.LBB4975:
	.loc 28 1035 0
	and	r3, r0, #14
	cmp	r3, #14
	.loc 28 1037 0
	uxtbeq	r0, r0
.LVL822:
	.loc 28 1036 0
	andne	r0, r0, #15
.LBE4975:
.LBE4974:
	.loc 23 300 0
	sub	r0, r0, #11
	clz	r0, r0
	mov	r0, r0, lsr #5
	.loc 23 314 0
	add	sp, sp, #20
	.cfi_remember_state
	.cfi_def_cfa_offset 12
.LVL823:
	@ sp needed
	ldmfd	sp!, {r4, r5, pc}
.LVL824:
.L929:
	.cfi_restore_state
.LBB4976:
.LBB4977:
	.loc 28 1035 0
	and	ip, r0, #14
	cmp	ip, #14
	.loc 28 1037 0
	uxtbeq	r3, r0
	.loc 28 1036 0
	andne	r3, r0, #15
.LBE4977:
.LBE4976:
	.loc 23 274 0
	bic	r3, r3, #2
	cmp	r3, #1
	bne	.L999
.LVL825:
.LBB4978:
.LBB4979:
.LBB4980:
.LBB4981:
.LBB4982:
	.loc 28 1035 0
	cmp	r2, #14
	.loc 28 1037 0
	uxtbeq	r3, r1
	.loc 28 1036 0
	andne	r3, r1, #15
.LVL826:
.LBE4982:
.LBE4981:
	.loc 38 207 0
	and	lr, r3, #253
	cmp	lr, #1
	bne	.L947
	.loc 38 210 0
	cmp	r3, #1
	beq	.L941
	cmp	r3, #3
	beq	.L942
	.loc 38 218 0
	mov	r4, #0
.LVL827:
.L940:
.LBE4980:
.LBE4979:
.LBB4990:
.LBB4991:
.LBB4992:
.LBB4993:
	.loc 28 1035 0
	cmp	ip, #14
	.loc 28 1037 0
	uxtbeq	r3, r0
	.loc 28 1036 0
	andne	r3, r0, #15
.LVL828:
.LBE4993:
.LBE4992:
	.loc 38 207 0
	and	lr, r3, #253
	cmp	lr, #1
	bne	.L947
	.loc 38 210 0
	cmp	r3, #1
	beq	.L949
	cmp	r3, #3
	bne	.L1008
.LVL829:
.LBB4994:
.LBB4995:
	.loc 28 1919 0
	and	r3, r0, #15
.LVL830:
	cmp	r3, #3
	bne	.L952
	.loc 28 1922 0
	bic	lr, r0, #-268435441
	bic	lr, lr, #264241152
	mov	lr, lr, asl #10
.LVL831:
.L948:
.LBE4995:
.LBE4994:
.LBE4991:
.LBE4990:
.LBB4999:
.LBB5000:
.LBB5001:
.LBB5002:
	.loc 28 1035 0
	cmp	r2, #14
	ldr	r3, [sp, #12]
.LVL832:
	.loc 28 1037 0
	uxtbeq	r2, r1
.LVL833:
	.loc 28 1036 0
	andne	r2, r1, #15
.LVL834:
.LBE5002:
.LBE5001:
	.loc 38 228 0
	and	r5, r2, #253
	cmp	r5, #1
	bne	.L966
	.loc 38 231 0
	cmp	r2, #3
	beq	.L1009
.LVL835:
.L994:
.LBE5000:
.LBE4999:
.LBB5010:
.LBB5011:
	.loc 37 113 0
	mov	r1, #4096
.L956:
.LBE5011:
.LBE5010:
.LBB5013:
.LBB5014:
.LBB5015:
.LBB5016:
	.loc 28 1035 0
	cmp	ip, #14
	sub	r3, r4, #1
	.loc 28 1037 0
	uxtbeq	r2, r0
.LVL836:
	.loc 28 1036 0
	andne	r2, r0, #15
.LBE5016:
.LBE5015:
.LBE5014:
.LBE5013:
	.loc 23 279 0
	add	r1, r3, r1
.LVL837:
	ldr	r3, [sp, #4]
.LVL838:
.LBB5021:
.LBB5019:
	.loc 38 228 0
	and	ip, r2, #253
.LVL839:
	cmp	ip, #1
	bne	.L966
	.loc 38 231 0
	cmp	r2, #3
	beq	.L1010
.LVL840:
.L996:
.LBE5019:
.LBE5021:
.LBB5022:
.LBB5023:
	.loc 37 113 0
	mov	r3, #4096
.L967:
	sub	r2, lr, #1
.LVL841:
.LBE5023:
.LBE5022:
	.loc 23 280 0
	add	r3, r2, r3
.LVL842:
	cmp	r1, r3
	cmpcs	r3, lr
	movcs	r3, #1
.LVL843:
	movcc	r3, #0
	.loc 23 281 0
	cmp	r4, lr
	movhi	r0, #0
	andls	r0, r3, #1
	b	.L928
.LVL844:
.L932:
.LBE4978:
.LBB5037:
.LBB5038:
	.loc 28 1035 0
	and	r3, r0, #14
	cmp	r3, #14
	.loc 28 1037 0
	uxtbeq	r3, r0
	.loc 28 1036 0
	andne	r3, r0, #15
.LBE5038:
.LBE5037:
	.loc 23 286 0
	cmp	r3, #7
	bne	.L999
.LVL845:
.LBB5039:
.LBB5040:
	.loc 28 2098 0
	and	r3, r1, #15
	cmp	r3, #7
	bne	.L978
.LBE5040:
.LBE5039:
.LBB5044:
.LBB5045:
	and	r3, r0, #15
.LBE5045:
.LBE5044:
.LBB5048:
.LBB5041:
	.loc 28 2101 0
	bic	r1, r1, #1020
.LBE5041:
.LBE5048:
.LBB5049:
.LBB5046:
	.loc 28 2098 0
	cmp	r3, #7
.LBE5046:
.LBE5049:
.LBB5050:
.LBB5042:
	.loc 28 2101 0
	bic	r1, r1, #3
.LVL846:
.LBE5042:
.LBE5050:
.LBB5051:
.LBB5047:
	.loc 28 2098 0
	bne	.L978
.LVL847:
	.loc 28 2101 0
	bic	r0, r0, #1020
.LVL848:
	bic	r0, r0, #3
.LBE5047:
.LBE5051:
	.loc 23 287 0
	rsb	r0, r0, r1
	clz	r0, r0
	mov	r0, r0, lsr #5
	b	.L928
.LVL849:
.L933:
.LBB5052:
.LBB5053:
	.loc 28 1035 0
	and	r3, r0, #14
	cmp	r3, #14
	.loc 28 1037 0
	uxtbeq	r3, r0
	.loc 28 1036 0
	andne	r3, r0, #15
.LBE5053:
.LBE5052:
	.loc 23 293 0
	cmp	r3, #9
	bne	.L999
.LVL850:
.LBB5054:
.LBB5055:
	.loc 28 2162 0
	and	r3, r1, #15
	cmp	r3, #9
	bne	.L982
.LBE5055:
.LBE5054:
.LBB5059:
.LBB5060:
	and	r3, r0, #15
.LBE5060:
.LBE5059:
.LBB5063:
.LBB5056:
	.loc 28 2165 0
	bic	r1, r1, #16320
.LBE5056:
.LBE5063:
.LBB5064:
.LBB5061:
	.loc 28 2162 0
	cmp	r3, #9
.LBE5061:
.LBE5064:
.LBB5065:
.LBB5057:
	.loc 28 2165 0
	bic	r1, r1, #63
.LVL851:
.LBE5057:
.LBE5065:
.LBB5066:
.LBB5062:
	.loc 28 2162 0
	bne	.L982
.LVL852:
	.loc 28 2165 0
	bic	r0, r0, #16320
.LVL853:
	bic	r0, r0, #63
.LBE5062:
.LBE5066:
	.loc 23 294 0
	rsb	r0, r0, r1
	clz	r0, r0
	mov	r0, r0, lsr #5
	b	.L928
.LVL854:
.L1007:
.LBB5067:
.LBB5068:
	.loc 28 1967 0
	and	r3, r1, #15
	cmp	r3, #5
	bne	.L988
.LBE5068:
.LBE5067:
.LBB5071:
.LBB5072:
	and	r3, r0, #15
.LBE5072:
.LBE5071:
.LBB5074:
.LBB5069:
	.loc 28 1970 0
	bic	r1, r1, #15
.LVL855:
.LBE5069:
.LBE5074:
.LBB5075:
.LBB5073:
	.loc 28 1967 0
	cmp	r3, #5
	bne	.L988
.LVL856:
	.loc 28 1970 0
	bic	r0, r0, #15
.LVL857:
.LBE5073:
.LBE5075:
	.loc 23 307 0
	rsb	r0, r0, r1
.LVL858:
	clz	r0, r0
	mov	r0, r0, lsr #5
	b	.L928
.LVL859:
.L942:
.LBB5076:
.LBB5027:
.LBB4987:
.LBB4983:
.LBB4984:
	.loc 28 1919 0
	and	r3, r1, #15
.LVL860:
	cmp	r3, #3
	.loc 28 1922 0
	biceq	r4, r1, #-268435441
	biceq	r4, r4, #264241152
	moveq	r4, r4, asl #10
	.loc 28 1919 0
	beq	.L940
.L952:
	bl	cap_frame_cap_get_capFBasePtr.isra.87.part.88
.LVL861:
.L1009:
.LBE4984:
.LBE4983:
.LBE4987:
.LBE5027:
.LBB5028:
.LBB5007:
.LBB5003:
.LBB5004:
	.loc 28 1801 0
	and	r1, r1, #15
.LVL862:
	cmp	r1, #3
	bne	.L969
.LVL863:
	.loc 28 1804 0
	mov	r3, r3, lsr #30
.LVL864:
.LBE5004:
.LBE5003:
.LBE5007:
.LBE5028:
.LBB5029:
.LBB5012:
	.loc 37 113 0
	cmp	r3, #3
	ldrls	pc, [pc, r3, asl #2]
	b	.L970
.L960:
	.word	.L994
	.word	.L961
	.word	.L962
	.word	.L963
.L963:
	mov	r1, #16777216
	b	.L956
.L962:
	mov	r1, #1048576
	b	.L956
.L961:
	mov	r1, #65536
	b	.L956
.LVL865:
.L1010:
.LBE5012:
.LBE5029:
.LBB5030:
.LBB5020:
.LBB5017:
.LBB5018:
	.loc 28 1801 0
	and	r0, r0, #15
.LVL866:
	cmp	r0, #3
	bne	.L969
.LVL867:
	.loc 28 1804 0
	mov	r3, r3, lsr #30
.LVL868:
.LBE5018:
.LBE5017:
.LBE5020:
.LBE5030:
.LBB5031:
.LBB5026:
	.loc 37 113 0
	cmp	r3, #3
	ldrls	pc, [pc, r3, asl #2]
	b	.L970
.L971:
	.word	.L996
	.word	.L972
	.word	.L973
	.word	.L974
.L974:
	mov	r3, #16777216
.LVL869:
	b	.L967
.LVL870:
.L973:
	mov	r3, #1048576
.LVL871:
	b	.L967
.LVL872:
.L972:
	mov	r3, #65536
.LVL873:
	b	.L967
.LVL874:
.L970:
.LBB5024:
.LBB5025:
	.loc 37 127 0
	movw	r0, #:lower16:.LC26
	movw	r1, #:lower16:.LC27
	movt	r0, #:upper16:.LC26
	movt	r1, #:upper16:.LC27
	mov	r2, #127
	ldr	r3, .L1011
	bl	_fail
.LVL875:
.L941:
.LBE5025:
.LBE5024:
.LBE5026:
.LBE5031:
.LBB5032:
.LBB4988:
.LBB4985:
.LBB4986:
	.loc 28 1755 0
	and	r3, r1, #15
.LVL876:
	cmp	r3, #1
	.loc 28 1758 0
	biceq	r4, r1, #-16777216
	biceq	r4, r4, #15
	moveq	r4, r4, asl #8
	.loc 28 1755 0
	beq	.L940
.L951:
	bl	cap_small_frame_cap_get_capFBasePtr.isra.85.part.86
.LVL877:
.L1008:
.LBE4986:
.LBE4985:
.LBE4988:
.LBE5032:
.LBB5033:
.LBB4998:
	.loc 38 218 0
	mov	lr, #0
	b	.L948
.L949:
.LVL878:
.LBB4996:
.LBB4997:
	.loc 28 1755 0
	and	r3, r0, #15
.LVL879:
	cmp	r3, #1
	bne	.L951
	.loc 28 1758 0
	bic	lr, r0, #-16777216
	bic	lr, lr, #15
	mov	lr, lr, asl #8
	b	.L948
.LVL880:
.L947:
.LBE4997:
.LBE4996:
.LBE4998:
.LBE5033:
.LBB5034:
.LBB4989:
	bl	generic_frame_cap_get_capFBasePtr.isra.89.part.90
.LVL881:
.L966:
.LBE4989:
.LBE5034:
.LBB5035:
.LBB5008:
	bl	generic_frame_cap_get_capFSize.part.121
.LVL882:
.L988:
.LBE5008:
.LBE5035:
.LBE5076:
.LBB5077:
.LBB5070:
	bl	cap_asid_pool_cap_get_capASIDPool.isra.95.part.96
.LVL883:
.L969:
.LBE5070:
.LBE5077:
.LBB5078:
.LBB5036:
.LBB5009:
.LBB5006:
.LBB5005:
	bl	cap_frame_cap_get_capFSize.part.120
.LVL884:
.L982:
.LBE5005:
.LBE5006:
.LBE5009:
.LBE5036:
.LBE5078:
.LBB5079:
.LBB5058:
	bl	cap_page_directory_cap_get_capPDBasePtr.isra.93.part.94
.LVL885:
.L978:
.LBE5058:
.LBE5079:
.LBB5080:
.LBB5043:
	bl	cap_page_table_cap_get_capPTBasePtr.isra.91.part.92
.LVL886:
.L1012:
	.align	2
.L1011:
	.word	.LANCHOR4+72
.LBE5043:
.LBE5080:
	.cfi_endproc
.LFE459:
	.size	Arch_sameRegionAs, .-Arch_sameRegionAs
	.align	2
	.global	Arch_sameObjectAs
	.type	Arch_sameObjectAs, %function
Arch_sameObjectAs:
.LFB460:
	.loc 23 319 0
	.cfi_startproc
	@ args = 0, pretend = 0, frame = 16
	@ frame_needed = 0, uses_anonymous_args = 0
	str	lr, [sp, #-4]!
	.cfi_def_cfa_offset 4
	.cfi_offset 14, -4
	sub	sp, sp, #20
	.cfi_def_cfa_offset 24
	.loc 23 319 0
	add	lr, sp, #8
	stmia	sp, {r2, r3}
	mov	ip, sp
	stmia	lr, {r0, r1}
	mov	r1, r0
.LVL887:
	mov	r0, r2
.LVL888:
.LBB5081:
.LBB5082:
	.loc 28 1035 0
	and	r2, r1, #14
	cmp	r2, #14
	beq	.L1014
	.loc 28 1036 0
	and	r3, r1, #15
.LBE5082:
.LBE5081:
	.loc 23 320 0
	cmp	r3, #1
	beq	.L1015
.L1025:
	.loc 23 328 0
	cmp	r3, #3
	beq	.L1049
.L1026:
	.loc 23 338 0
	ldmia	lr, {r0, r1}
	ldmia	ip, {r2, r3}
	.loc 23 339 0
	add	sp, sp, #20
	.cfi_remember_state
	.cfi_def_cfa_offset 4
	@ sp needed
	ldr	lr, [sp], #4
	.cfi_restore 14
	.cfi_def_cfa_offset 0
	.loc 23 338 0
	b	Arch_sameRegionAs
.LVL889:
.L1014:
	.cfi_restore_state
.LBB5084:
.LBB5083:
	.loc 28 1037 0
	uxtb	r3, r1
.LBE5083:
.LBE5084:
	.loc 23 320 0
	cmp	r3, #1
	bne	.L1025
.L1015:
.LVL890:
.LBB5085:
.LBB5086:
	.loc 28 1035 0
	and	r3, r0, #14
	cmp	r3, #14
	beq	.L1018
	.loc 28 1036 0
	and	r3, r0, #15
.LBE5086:
.LBE5085:
	.loc 23 321 0
	cmp	r3, #1
	beq	.L1050
.L1020:
	.loc 23 324 0
	cmp	r3, #3
	beq	.L1039
.LVL891:
.LBB5088:
.LBB5089:
	.loc 28 1035 0
	cmp	r2, #14
	uxtbeq	r3, r1
	andne	r3, r1, #15
.LBE5089:
.LBE5088:
	.loc 23 328 0
	cmp	r3, #3
	bne	.L1026
.L1049:
.LVL892:
.LBB5090:
.LBB5091:
	.loc 28 1035 0
	and	r3, r0, #14
	cmp	r3, #14
	beq	.L1027
	.loc 28 1036 0
	and	r3, r0, #15
.LBE5091:
.LBE5090:
	.loc 23 329 0
	cmp	r3, #3
	beq	.L1051
.L1029:
	.loc 23 334 0
	cmp	r3, #1
	bne	.L1026
.L1039:
	.loc 23 325 0
	mov	r0, #0
	.loc 23 339 0
	add	sp, sp, #20
	.cfi_remember_state
	.cfi_def_cfa_offset 4
	@ sp needed
	ldr	pc, [sp], #4
.L1027:
	.cfi_restore_state
.LBB5093:
.LBB5092:
	.loc 28 1037 0
	uxtb	r3, r0
.LBE5092:
.LBE5093:
	.loc 23 329 0
	cmp	r3, #3
	bne	.L1029
.LVL893:
.LBB5094:
.LBB5095:
	.loc 28 1919 0
	and	r3, r1, #15
	cmp	r3, #3
	bne	.L1031
.LBE5095:
.LBE5094:
.LBB5099:
.LBB5100:
	and	r3, r0, #15
.LBE5100:
.LBE5099:
.LBB5103:
.LBB5096:
	.loc 28 1922 0
	bic	r1, r1, #-268435441
.LBE5096:
.LBE5103:
.LBB5104:
.LBB5101:
	.loc 28 1919 0
	cmp	r3, #3
.LBE5101:
.LBE5104:
.LBB5105:
.LBB5097:
	.loc 28 1922 0
	bic	r1, r1, #264241152
	mov	r1, r1, asl #10
.LVL894:
.LBE5097:
.LBE5105:
.LBB5106:
.LBB5102:
	.loc 28 1919 0
	bne	.L1031
.LVL895:
.L1035:
	.loc 28 1922 0
	bic	r0, r0, #-268435441
	bic	r0, r0, #264241152
.LBE5102:
.LBE5106:
	.loc 23 331 0
	cmp	r1, r0, asl #10
	bne	.L1039
.LVL896:
.LBB5107:
.LBB5108:
	.loc 28 1804 0 discriminator 1
	ldr	r3, [sp, #4]
.LBE5108:
.LBE5107:
.LBB5110:
.LBB5111:
	ldr	r2, [sp, #12]
.LBE5111:
.LBE5110:
.LBB5112:
.LBB5109:
	mov	r3, r3, lsr #30
.LVL897:
.LBE5109:
.LBE5112:
	.loc 23 331 0 discriminator 1
	cmp	r3, r2, lsr #30
	moveq	r0, #1
	movne	r0, #0
	b	.L1043
.LVL898:
.L1050:
.LBB5113:
.LBB5114:
	.loc 28 1755 0
	and	r3, r1, #15
	cmp	r3, #1
	.loc 28 1758 0
	biceq	r1, r1, #-16777216
	biceq	r1, r1, #15
	moveq	r1, r1, asl #8
	.loc 28 1755 0
	bne	.L1022
.L1033:
.LVL899:
.LBE5114:
.LBE5113:
.LBB5119:
.LBB5120:
	.loc 28 1758 0
	bic	r0, r0, #-16777216
	bic	r0, r0, #15
.LBE5120:
.LBE5119:
	.loc 23 322 0
	cmp	r1, r0, asl #8
	moveq	r0, #1
	movne	r0, #0
.LVL900:
.L1043:
	.loc 23 339 0
	add	sp, sp, #20
	.cfi_remember_state
	.cfi_def_cfa_offset 4
	@ sp needed
	ldr	pc, [sp], #4
.L1018:
	.cfi_restore_state
.LBB5124:
.LBB5087:
	.loc 28 1037 0
	uxtb	r3, r0
.LBE5087:
.LBE5124:
	.loc 23 321 0
	cmp	r3, #1
	bne	.L1020
.LBB5125:
.LBB5115:
	.loc 28 1755 0
	and	r3, r1, #15
	cmp	r3, #1
	bne	.L1022
.LBE5115:
.LBE5125:
.LBB5126:
.LBB5121:
	and	r3, r0, #15
.LBE5121:
.LBE5126:
.LBB5127:
.LBB5116:
	.loc 28 1758 0
	bic	r1, r1, #-16777216
.LBE5116:
.LBE5127:
.LBB5128:
.LBB5122:
	.loc 28 1755 0
	cmp	r3, #1
.LBE5122:
.LBE5128:
.LBB5129:
.LBB5117:
	.loc 28 1758 0
	bic	r1, r1, #15
	mov	r1, r1, asl #8
.LVL901:
.LBE5117:
.LBE5129:
.LBB5130:
.LBB5123:
	.loc 28 1755 0
	beq	.L1033
.LVL902:
.L1022:
.LBE5123:
.LBE5130:
.LBB5131:
.LBB5118:
	bl	cap_small_frame_cap_get_capFBasePtr.isra.85.part.86
.LVL903:
.L1051:
.LBE5118:
.LBE5131:
.LBB5132:
.LBB5098:
	.loc 28 1919 0
	and	r3, r1, #15
	cmp	r3, #3
	.loc 28 1922 0
	biceq	r1, r1, #-268435441
	biceq	r1, r1, #264241152
	moveq	r1, r1, asl #10
	.loc 28 1919 0
	beq	.L1035
.L1031:
	bl	cap_frame_cap_get_capFBasePtr.isra.87.part.88
.LVL904:
.LBE5098:
.LBE5132:
	.cfi_endproc
.LFE460:
	.size	Arch_sameObjectAs, .-Arch_sameObjectAs
	.section	.text.unlikely
	.align	2
	.type	fault_vm_fault_new.part.122, %function
fault_vm_fault_new.part.122:
.LFB813:
	.loc 28 631 0
	.cfi_startproc
	@ Volatile: function does not return.
	@ args = 0, pretend = 0, frame = 0
	@ frame_needed = 0, uses_anonymous_args = 0
.LVL905:
	.loc 28 639 0
	movw	r0, #:lower16:.LC56
	movw	r1, #:lower16:.LC30
	.loc 28 631 0
	stmfd	sp!, {r3, lr}
	.cfi_def_cfa_offset 8
	.cfi_offset 3, -8
	.cfi_offset 14, -4
	.loc 28 639 0
	movt	r0, #:upper16:.LC56
	movt	r1, #:upper16:.LC30
	movw	r2, #639
	ldr	r3, .L1054
	bl	_assert_fail
.LVL906:
.L1055:
	.align	2
.L1054:
	.word	.LANCHOR4+1456
	.cfi_endproc
.LFE813:
	.size	fault_vm_fault_new.part.122, .-fault_vm_fault_new.part.122
	.text
	.align	2
	.type	loadHWASID, %function
loadHWASID:
.LFB347:
	.loc 14 817 0
	.cfi_startproc
	@ args = 0, pretend = 0, frame = 0
	@ frame_needed = 0, uses_anonymous_args = 0
.LVL907:
	stmfd	sp!, {r3, lr}
	.cfi_def_cfa_offset 8
	.cfi_offset 3, -8
	.cfi_offset 14, -4
	.loc 14 821 0
	mov	r2, r0, lsr #10
	movw	r3, #:lower16:armKSASIDTable
	movt	r3, #:upper16:armKSASIDTable
	ldr	r3, [r3, r2, asl #2]
.LVL908:
	.loc 14 822 0
	cmp	r3, #0
	beq	.L1060
	.loc 14 824 0
	ubfx	r0, r0, #0, #10
.LVL909:
	ldr	r3, [r3, r0, asl #2]
.LVL910:
	.loc 14 825 0
	cmp	r3, #0
	beq	.L1061
	.loc 14 827 0
	add	r3, r3, #12288
.LVL911:
	.loc 14 828 0
	ldr	r0, [r3, #4032]
.LVL912:
	ldmfd	sp!, {r3, pc}
.LVL913:
.L1060:
.LBB5135:
.LBB5136:
	.loc 14 822 0
	movw	r0, #:lower16:.LC57
.LVL914:
	movw	r1, #:lower16:.LC23
	movt	r0, #:upper16:.LC57
	movt	r1, #:upper16:.LC23
	movw	r2, #822
	ldr	r3, .L1062
.LVL915:
	bl	_assert_fail
.LVL916:
.L1061:
.LBE5136:
.LBE5135:
	.loc 14 825 0 discriminator 1
	movw	r0, #:lower16:.LC58
	movw	r1, #:lower16:.LC23
	movt	r0, #:upper16:.LC58
	movt	r1, #:upper16:.LC23
	movw	r2, #825
.LVL917:
	ldr	r3, .L1062
.LVL918:
	bl	_assert_fail
.LVL919:
.L1063:
	.align	2
.L1062:
	.word	.LANCHOR4+1476
	.cfi_endproc
.LFE347:
	.size	loadHWASID, .-loadHWASID
	.align	2
	.type	pde_pde_invalid_get_stored_asid_valid.part.125, %function
pde_pde_invalid_get_stored_asid_valid.part.125:
.LFB816:
	.loc 28 825 0
	.cfi_startproc
	@ Volatile: function does not return.
	@ args = 0, pretend = 0, frame = 0
	@ frame_needed = 0, uses_anonymous_args = 0
	.loc 28 827 0
	movw	r0, #:lower16:.LC59
	movw	r1, #:lower16:.LC30
	.loc 28 825 0
	stmfd	sp!, {r3, lr}
	.cfi_def_cfa_offset 8
	.cfi_offset 3, -8
	.cfi_offset 14, -4
	.loc 28 827 0
	movt	r0, #:upper16:.LC59
	movt	r1, #:upper16:.LC30
	mov	r2, #828
	ldr	r3, .L1066
	bl	_assert_fail
.LVL920:
.L1067:
	.align	2
.L1066:
	.word	.LANCHOR4+1488
	.cfi_endproc
.LFE816:
	.size	pde_pde_invalid_get_stored_asid_valid.part.125, .-pde_pde_invalid_get_stored_asid_valid.part.125
	.section	.text.unlikely
	.align	2
	.type	pde_pde_invalid_get_stored_hw_asid.part.126, %function
pde_pde_invalid_get_stored_hw_asid.part.126:
.LFB817:
	.loc 28 811 0
	.cfi_startproc
	@ Volatile: function does not return.
	@ args = 0, pretend = 0, frame = 0
	@ frame_needed = 0, uses_anonymous_args = 0
	.loc 28 813 0
	movw	r0, #:lower16:.LC59
	movw	r1, #:lower16:.LC30
	.loc 28 811 0
	stmfd	sp!, {r3, lr}
	.cfi_def_cfa_offset 8
	.cfi_offset 3, -8
	.cfi_offset 14, -4
	.loc 28 813 0
	movt	r0, #:upper16:.LC59
	movt	r1, #:upper16:.LC30
	movw	r2, #814
	ldr	r3, .L1070
	bl	_assert_fail
.LVL921:
.L1071:
	.align	2
.L1070:
	.word	.LANCHOR4+1528
	.cfi_endproc
.LFE817:
	.size	pde_pde_invalid_get_stored_hw_asid.part.126, .-pde_pde_invalid_get_stored_hw_asid.part.126
	.text
	.align	2
	.global	flushSpace
	.type	flushSpace, %function
flushSpace:
.LFB352:
	.loc 14 927 0
	.cfi_startproc
	@ args = 0, pretend = 0, frame = 0
	@ frame_needed = 0, uses_anonymous_args = 0
.LVL922:
	stmfd	sp!, {r4, lr}
	.cfi_def_cfa_offset 8
	.cfi_offset 4, -8
	.cfi_offset 14, -4
	.loc 14 930 0
	bl	loadHWASID
.LVL923:
	mov	r4, r0
.LVL924:
.LBB5137:
.LBB5138:
.LBB5139:
.LBB5140:
	.loc 2 17 0
@ 17 "/home/neelesh/research/seL4-tutorials-manifest/kernel/include/arch/arm/armv/armv7-a/armv/machine.h" 1
	dsb
@ 0 "" 2
.LBE5140:
.LBE5139:
	.loc 15 172 0
	bl	clean_D_PoU
.LVL925:
.LBB5141:
.LBB5142:
	.loc 2 17 0
@ 17 "/home/neelesh/research/seL4-tutorials-manifest/kernel/include/arch/arm/armv/armv7-a/armv/machine.h" 1
	dsb
@ 0 "" 2
.LBE5142:
.LBE5141:
.LBB5143:
.LBB5144:
	.loc 4 253 0
	mov	r3, #0
@ 253 "/home/neelesh/research/seL4-tutorials-manifest/kernel/include/arch/arm/arch/machine.h" 1
	mcr p15, 0, r3, c7, c5, 0
@ 0 "" 2
.LBB5145:
.LBB5146:
	.loc 2 29 0
@ 29 "/home/neelesh/research/seL4-tutorials-manifest/kernel/include/arch/arm/armv/armv7-a/armv/machine.h" 1
	isb
@ 0 "" 2
.LBE5146:
.LBE5145:
.LBE5144:
.LBE5143:
.LBB5147:
.LBB5148:
	.loc 2 17 0
@ 17 "/home/neelesh/research/seL4-tutorials-manifest/kernel/include/arch/arm/armv/armv7-a/armv/machine.h" 1
	dsb
@ 0 "" 2
.LVL926:
.LBE5148:
.LBE5147:
.LBE5138:
.LBE5137:
.LBB5149:
.LBB5150:
	.loc 28 827 0
	tst	r4, #3
	bne	.L1080
.LVL927:
.LBE5150:
.LBE5149:
	.loc 14 939 0
	tst	r4, #8388608
	ldmeqfd	sp!, {r4, pc}
.LVL928:
.LBB5152:
.LBB5153:
.LBB5154:
.LBB5155:
	.loc 2 17 0
@ 17 "/home/neelesh/research/seL4-tutorials-manifest/kernel/include/arch/arm/armv/armv7-a/armv/machine.h" 1
	dsb
@ 0 "" 2
.LBE5155:
.LBE5154:
.LBE5153:
.LBE5152:
.LBB5161:
.LBB5162:
	.loc 28 816 0
	mov	r4, r4, lsr #24
.LVL929:
.LBE5162:
.LBE5161:
.LBB5163:
.LBB5160:
	.loc 4 165 0
@ 165 "/home/neelesh/research/seL4-tutorials-manifest/kernel/include/arch/arm/arch/machine.h" 1
	mcr p15, 0, r4, c8, c7, 2
@ 0 "" 2
.LBB5156:
.LBB5157:
	.loc 2 17 0
@ 17 "/home/neelesh/research/seL4-tutorials-manifest/kernel/include/arch/arm/armv/armv7-a/armv/machine.h" 1
	dsb
@ 0 "" 2
.LBE5157:
.LBE5156:
.LBB5158:
.LBB5159:
	.loc 2 29 0
@ 29 "/home/neelesh/research/seL4-tutorials-manifest/kernel/include/arch/arm/armv/armv7-a/armv/machine.h" 1
	isb
@ 0 "" 2
	ldmfd	sp!, {r4, pc}
.LVL930:
.L1080:
.LBE5159:
.LBE5158:
.LBE5160:
.LBE5163:
.LBB5164:
.LBB5151:
	bl	pde_pde_invalid_get_stored_asid_valid.part.125
.LVL931:
.LBE5151:
.LBE5164:
	.cfi_endproc
.LFE352:
	.size	flushSpace, .-flushSpace
	.align	2
	.global	invalidateTLBByASID
	.type	invalidateTLBByASID, %function
invalidateTLBByASID:
.LFB353:
	.loc 14 949 0
	.cfi_startproc
	@ args = 0, pretend = 0, frame = 0
	@ frame_needed = 0, uses_anonymous_args = 0
.LVL932:
	stmfd	sp!, {r3, lr}
	.cfi_def_cfa_offset 8
	.cfi_offset 3, -8
	.cfi_offset 14, -4
	.loc 14 952 0
	bl	loadHWASID
.LVL933:
.LBB5165:
.LBB5166:
	.loc 28 827 0
	tst	r0, #3
	bne	.L1089
.LVL934:
.LBE5166:
.LBE5165:
	.loc 14 956 0
	tst	r0, #8388608
	ldmeqfd	sp!, {r3, pc}
.LVL935:
.LBB5168:
.LBB5169:
.LBB5170:
.LBB5171:
	.loc 2 17 0
@ 17 "/home/neelesh/research/seL4-tutorials-manifest/kernel/include/arch/arm/armv/armv7-a/armv/machine.h" 1
	dsb
@ 0 "" 2
.LBE5171:
.LBE5170:
.LBE5169:
.LBE5168:
.LBB5177:
.LBB5178:
	.loc 28 816 0
	mov	r0, r0, lsr #24
.LVL936:
.LBE5178:
.LBE5177:
.LBB5179:
.LBB5176:
	.loc 4 165 0
@ 165 "/home/neelesh/research/seL4-tutorials-manifest/kernel/include/arch/arm/arch/machine.h" 1
	mcr p15, 0, r0, c8, c7, 2
@ 0 "" 2
.LBB5172:
.LBB5173:
	.loc 2 17 0
@ 17 "/home/neelesh/research/seL4-tutorials-manifest/kernel/include/arch/arm/armv/armv7-a/armv/machine.h" 1
	dsb
@ 0 "" 2
.LBE5173:
.LBE5172:
.LBB5174:
.LBB5175:
	.loc 2 29 0
@ 29 "/home/neelesh/research/seL4-tutorials-manifest/kernel/include/arch/arm/armv/armv7-a/armv/machine.h" 1
	isb
@ 0 "" 2
	ldmfd	sp!, {r3, pc}
.LVL937:
.L1089:
.LBE5175:
.LBE5174:
.LBE5176:
.LBE5179:
.LBB5180:
.LBB5167:
	bl	pde_pde_invalid_get_stored_asid_valid.part.125
.LVL938:
.LBE5167:
.LBE5180:
	.cfi_endproc
.LFE353:
	.size	invalidateTLBByASID, .-invalidateTLBByASID
	.align	2
	.global	performPageInvocationMapPDE
	.type	performPageInvocationMapPDE, %function
performPageInvocationMapPDE:
.LFB371:
	.loc 14 2096 0
	.cfi_startproc
	@ args = 12, pretend = 0, frame = 8
	@ frame_needed = 0, uses_anonymous_args = 0
.LVL939:
	stmfd	sp!, {r4, r5, r6, lr}
	.cfi_def_cfa_offset 16
	.cfi_offset 4, -16
	.cfi_offset 5, -12
	.cfi_offset 6, -8
	.cfi_offset 14, -4
	sub	sp, sp, #8
	.cfi_def_cfa_offset 24
	ldr	ip, [sp, #28]
.LVL940:
	.loc 14 2096 0
	mov	r4, r0
	ldr	lr, [sp, #32]
.LVL941:
	stmia	sp, {r1, r2}
.LBB5181:
.LBB5182:
.LBB5183:
	.loc 28 788 0
	ldr	r5, [ip]
.LBE5183:
.LBE5182:
.LBE5181:
	.loc 14 2100 0
	ldmia	sp, {r0, r1}
.LVL942:
	.loc 14 2109 0
	cmp	lr, #0
	.loc 14 2096 0
	ldr	r1, [sp, #24]
.LVL943:
.LBB5186:
.LBB5185:
.LBB5184:
	.loc 28 788 0
	and	r5, r5, #3
.LBE5184:
.LBE5185:
.LBE5186:
	.loc 14 2100 0
	stmia	r3, {r0, r2}
.LVL944:
	addne	r2, ip, lr, asl #2
	movne	r3, ip
.LVL945:
	.loc 14 2109 0
	beq	.L1095
.LVL946:
.L1094:
	.loc 14 2110 0 discriminator 3
	str	r1, [r3], #4
	.loc 14 2109 0 discriminator 3
	cmp	r3, r2
	bne	.L1094
.L1095:
.LVL947:
	.loc 14 2113 0
	add	r2, ip, lr, asl #2
.LBB5187:
.LBB5188:
	.loc 15 95 0
	mov	r3, ip, lsr #5
.LVL948:
.LBE5188:
.LBE5187:
	.loc 14 2112 0
	sub	r2, r2, #1
.LBB5194:
.LBB5193:
	.loc 15 95 0
	mov	r2, r2, lsr #5
	add	r2, r2, #1
	cmp	r2, r3
	bls	.L1093
.L1098:
.LVL949:
	.loc 15 96 0
	mov	r1, r3, asl #5
.LVL950:
.LBB5189:
.LBB5190:
	.loc 4 212 0
@ 212 "/home/neelesh/research/seL4-tutorials-manifest/kernel/include/arch/arm/arch/machine.h" 1
	mcr p15, 0, r1, c7, c11, 1
@ 0 "" 2
.LBB5191:
.LBB5192:
	.loc 2 23 0
@ 23 "/home/neelesh/research/seL4-tutorials-manifest/kernel/include/arch/arm/armv/armv7-a/armv/machine.h" 1
	dmb
@ 0 "" 2
.LBE5192:
.LBE5191:
.LBE5190:
.LBE5189:
	.loc 15 95 0
	add	r3, r3, #1
.LVL951:
	cmp	r2, r3
	bne	.L1098
.LVL952:
.L1093:
.LBE5193:
.LBE5194:
	.loc 14 2115 0
	cmp	r5, #0
	bne	.L1103
	.loc 14 2120 0
	mov	r0, #0
	add	sp, sp, #8
	.cfi_remember_state
	.cfi_def_cfa_offset 16
	@ sp needed
	ldmfd	sp!, {r4, r5, r6, pc}
.LVL953:
.L1103:
	.cfi_restore_state
	mov	r0, r4
	.loc 14 2116 0
	bl	invalidateTLBByASID
.LVL954:
	.loc 14 2120 0
	mov	r0, #0
	add	sp, sp, #8
	.cfi_def_cfa_offset 16
	@ sp needed
	ldmfd	sp!, {r4, r5, r6, pc}
	.cfi_endproc
.LFE371:
	.size	performPageInvocationMapPDE, .-performPageInvocationMapPDE
	.align	2
	.global	performPageInvocationRemapPDE
	.type	performPageInvocationRemapPDE, %function
performPageInvocationRemapPDE:
.LFB373:
	.loc 14 2150 0
	.cfi_startproc
	@ args = 0, pretend = 0, frame = 8
	@ frame_needed = 0, uses_anonymous_args = 0
.LVL955:
	stmfd	sp!, {r4, lr}
	.cfi_def_cfa_offset 8
	.cfi_offset 4, -8
	.cfi_offset 14, -4
	sub	sp, sp, #8
	.cfi_def_cfa_offset 16
	.loc 14 2150 0
	add	ip, sp, #8
	stmdb	ip, {r2, r3}
	ldmia	sp, {r3, ip}
.LVL956:
.LBB5195:
.LBB5196:
.LBB5197:
	.loc 28 788 0
	ldr	r4, [r3]
.LBE5197:
.LBE5196:
.LBE5195:
	.loc 14 2161 0
	cmp	ip, #0
	addne	lr, r3, ip, asl #2
	movne	r2, r3
.LBB5200:
.LBB5199:
.LBB5198:
	.loc 28 788 0
	and	r4, r4, #3
.LVL957:
.LBE5198:
.LBE5199:
.LBE5200:
	.loc 14 2161 0
	beq	.L1109
.LVL958:
.L1108:
	.loc 14 2162 0 discriminator 3
	str	r1, [r2], #4
	.loc 14 2161 0 discriminator 3
	cmp	r2, lr
	bne	.L1108
.L1109:
.LVL959:
	.loc 14 2165 0
	add	r2, r3, ip, asl #2
.LBB5201:
.LBB5202:
	.loc 15 95 0
	mov	r3, r3, lsr #5
.LVL960:
.LBE5202:
.LBE5201:
	.loc 14 2164 0
	sub	r2, r2, #1
.LBB5208:
.LBB5207:
	.loc 15 95 0
	mov	r2, r2, lsr #5
	add	r2, r2, #1
	cmp	r2, r3
	bls	.L1107
.L1112:
.LVL961:
	.loc 15 96 0
	mov	r1, r3, asl #5
.LVL962:
.LBB5203:
.LBB5204:
	.loc 4 212 0
@ 212 "/home/neelesh/research/seL4-tutorials-manifest/kernel/include/arch/arm/arch/machine.h" 1
	mcr p15, 0, r1, c7, c11, 1
@ 0 "" 2
.LBB5205:
.LBB5206:
	.loc 2 23 0
@ 23 "/home/neelesh/research/seL4-tutorials-manifest/kernel/include/arch/arm/armv/armv7-a/armv/machine.h" 1
	dmb
@ 0 "" 2
.LBE5206:
.LBE5205:
.LBE5204:
.LBE5203:
	.loc 15 95 0
	add	r3, r3, #1
.LVL963:
	cmp	r2, r3
	bne	.L1112
.LVL964:
.L1107:
.LBE5207:
.LBE5208:
	.loc 14 2167 0
	cmp	r4, #0
	bne	.L1117
	.loc 14 2172 0
	mov	r0, #0
.LVL965:
	add	sp, sp, #8
	.cfi_remember_state
	.cfi_def_cfa_offset 8
.LVL966:
	@ sp needed
	ldmfd	sp!, {r4, pc}
.LVL967:
.L1117:
	.cfi_restore_state
	.loc 14 2168 0
	bl	invalidateTLBByASID
.LVL968:
	.loc 14 2172 0
	mov	r0, #0
	add	sp, sp, #8
	.cfi_def_cfa_offset 8
.LVL969:
	@ sp needed
	ldmfd	sp!, {r4, pc}
	.cfi_endproc
.LFE373:
	.size	performPageInvocationRemapPDE, .-performPageInvocationRemapPDE
	.section	.text.unlikely
	.align	2
	.type	pde_pde_invalid_new.part.127, %function
pde_pde_invalid_new.part.127:
.LFB818:
	.loc 28 792 0
	.cfi_startproc
	@ Volatile: function does not return.
	@ args = 0, pretend = 0, frame = 0
	@ frame_needed = 0, uses_anonymous_args = 0
.LVL970:
	.loc 28 798 0
	movw	r0, #:lower16:.LC60
	movw	r1, #:lower16:.LC30
	.loc 28 792 0
	stmfd	sp!, {r3, lr}
	.cfi_def_cfa_offset 8
	.cfi_offset 3, -8
	.cfi_offset 14, -4
	.loc 28 798 0
	movt	r0, #:upper16:.LC60
	movt	r1, #:upper16:.LC30
	movw	r2, #798
	ldr	r3, .L1120
	bl	_assert_fail
.LVL971:
.L1121:
	.align	2
.L1120:
	.word	.LANCHOR4+1564
	.cfi_endproc
.LFE818:
	.size	pde_pde_invalid_new.part.127, .-pde_pde_invalid_new.part.127
	.text
	.align	2
	.global	pageTableMapped
	.type	pageTableMapped, %function
pageTableMapped:
.LFB337:
	.loc 14 536 0
	.cfi_startproc
	@ args = 0, pretend = 0, frame = 8
	@ frame_needed = 0, uses_anonymous_args = 0
.LVL972:
	stmfd	sp!, {r4, r5, lr}
	.cfi_def_cfa_offset 12
	.cfi_offset 4, -12
	.cfi_offset 5, -8
	.cfi_offset 14, -4
	mov	r3, r0
	sub	sp, sp, #12
	.cfi_def_cfa_offset 24
	.loc 14 536 0
	mov	r4, r1
	.loc 14 541 0
	mov	r0, sp
.LVL973:
	mov	r1, r3
.LVL974:
	.loc 14 536 0
	mov	r5, r2
	.loc 14 541 0
	bl	findPDForASID
.LVL975:
	ldmia	sp, {r0, ip}
.LVL976:
	.loc 14 542 0
	cmp	r0, #0
	bne	.L1124
.LVL977:
	.loc 14 546 0
	mov	r4, r4, lsr #20
.LVL978:
	.loc 14 547 0
	ldr	r3, [ip, r4, asl #2]
.LVL979:
.LBB5217:
.LBB5218:
	.loc 28 783 0
	and	r2, r3, #3
.LBE5218:
.LBE5217:
	.loc 14 549 0
	cmp	r2, #1
	bne	.L1123
.LVL980:
.LBB5219:
.LBB5220:
	.loc 28 866 0
	bic	r3, r3, #1020
.LVL981:
	bic	r3, r3, #3
.LBE5220:
.LBE5219:
.LBB5221:
.LBB5222:
	.loc 3 45 0
	add	r3, r3, #-536870912
.LBE5222:
.LBE5221:
	.loc 14 551 0
	cmp	r5, r3
	moveq	r0, ip
	movne	r0, #0
.LVL982:
.L1123:
	.loc 14 555 0
	add	sp, sp, #12
	.cfi_remember_state
	.cfi_def_cfa_offset 12
	@ sp needed
	ldmfd	sp!, {r4, r5, pc}
.LVL983:
.L1124:
	.cfi_restore_state
	.loc 14 543 0
	mov	r0, #0
	.loc 14 555 0
	add	sp, sp, #12
	.cfi_def_cfa_offset 12
	@ sp needed
	ldmfd	sp!, {r4, r5, pc}
	.cfi_endproc
.LFE337:
	.size	pageTableMapped, .-pageTableMapped
	.section	.text.unlikely
	.align	2
	.type	pte_pte_small_ptr_get_address.part.131, %function
pte_pte_small_ptr_get_address.part.131:
.LFB822:
	.loc 28 2532 0
	.cfi_startproc
	@ Volatile: function does not return.
	@ args = 0, pretend = 0, frame = 0
	@ frame_needed = 0, uses_anonymous_args = 0
.LVL984:
	.loc 28 2534 0
	movw	r0, #:lower16:.LC61
	movw	r1, #:lower16:.LC30
	.loc 28 2532 0
	stmfd	sp!, {r3, lr}
	.cfi_def_cfa_offset 8
	.cfi_offset 3, -8
	.cfi_offset 14, -4
	.loc 28 2534 0
	movt	r0, #:upper16:.LC61
	movt	r1, #:upper16:.LC30
	movw	r2, #2535
	ldr	r3, .L1130
	bl	_assert_fail
.LVL985:
.L1131:
	.align	2
.L1130:
	.word	.LANCHOR4+1584
	.cfi_endproc
.LFE822:
	.size	pte_pte_small_ptr_get_address.part.131, .-pte_pte_small_ptr_get_address.part.131
	.align	2
	.type	pte_pte_large_ptr_get_address.part.132, %function
pte_pte_large_ptr_get_address.part.132:
.LFB823:
	.loc 28 2422 0
	.cfi_startproc
	@ Volatile: function does not return.
	@ args = 0, pretend = 0, frame = 0
	@ frame_needed = 0, uses_anonymous_args = 0
.LVL986:
	.loc 28 2424 0
	movw	r0, #:lower16:.LC62
	movw	r1, #:lower16:.LC30
	.loc 28 2422 0
	stmfd	sp!, {r3, lr}
	.cfi_def_cfa_offset 8
	.cfi_offset 3, -8
	.cfi_offset 14, -4
	.loc 28 2424 0
	movt	r0, #:upper16:.LC62
	movt	r1, #:upper16:.LC30
	movw	r2, #2425
	ldr	r3, .L1134
	bl	_assert_fail
.LVL987:
.L1135:
	.align	2
.L1134:
	.word	.LANCHOR4+1616
	.cfi_endproc
.LFE823:
	.size	pte_pte_large_ptr_get_address.part.132, .-pte_pte_large_ptr_get_address.part.132
	.align	2
	.type	pde_pde_section_ptr_get_size.part.133, %function
pde_pde_section_ptr_get_size.part.133:
.LFB824:
	.loc 28 980 0
	.cfi_startproc
	@ Volatile: function does not return.
	@ args = 0, pretend = 0, frame = 0
	@ frame_needed = 0, uses_anonymous_args = 0
.LVL988:
	.loc 28 982 0
	movw	r0, #:lower16:.LC63
	movw	r1, #:lower16:.LC30
	.loc 28 980 0
	stmfd	sp!, {r3, lr}
	.cfi_def_cfa_offset 8
	.cfi_offset 3, -8
	.cfi_offset 14, -4
	.loc 28 982 0
	movt	r0, #:upper16:.LC63
	movt	r1, #:upper16:.LC30
	movw	r2, #983
	ldr	r3, .L1138
	bl	_assert_fail
.LVL989:
.L1139:
	.align	2
.L1138:
	.word	.LANCHOR4+1648
	.cfi_endproc
.LFE824:
	.size	pde_pde_section_ptr_get_size.part.133, .-pde_pde_section_ptr_get_size.part.133
	.align	2
	.type	pde_pde_section_ptr_get_address.part.134, %function
pde_pde_section_ptr_get_address.part.134:
.LFB825:
	.loc 28 952 0
	.cfi_startproc
	@ Volatile: function does not return.
	@ args = 0, pretend = 0, frame = 0
	@ frame_needed = 0, uses_anonymous_args = 0
.LVL990:
	.loc 28 954 0
	movw	r0, #:lower16:.LC63
	movw	r1, #:lower16:.LC30
	.loc 28 952 0
	stmfd	sp!, {r3, lr}
	.cfi_def_cfa_offset 8
	.cfi_offset 3, -8
	.cfi_offset 14, -4
	.loc 28 954 0
	movt	r0, #:upper16:.LC63
	movt	r1, #:upper16:.LC30
	movw	r2, #955
	ldr	r3, .L1142
	bl	_assert_fail
.LVL991:
.L1143:
	.align	2
.L1142:
	.word	.LANCHOR4+1680
	.cfi_endproc
.LFE825:
	.size	pde_pde_section_ptr_get_address.part.134, .-pde_pde_section_ptr_get_address.part.134
	.align	2
	.type	cap_page_directory_cap_get_capPDIsMapped.isra.135.part.136, %function
cap_page_directory_cap_get_capPDIsMapped.isra.135.part.136:
.LFB827:
	.loc 28 2174 0
	.cfi_startproc
	@ Volatile: function does not return.
	@ args = 0, pretend = 0, frame = 0
	@ frame_needed = 0, uses_anonymous_args = 0
	.loc 28 2176 0
	movw	r0, #:lower16:.LC45
	movw	r1, #:lower16:.LC30
	.loc 28 2174 0
	stmfd	sp!, {r3, lr}
	.cfi_def_cfa_offset 8
	.cfi_offset 3, -8
	.cfi_offset 14, -4
	.loc 28 2176 0
	movt	r0, #:upper16:.LC45
	movt	r1, #:upper16:.LC30
	movw	r2, #2177
	ldr	r3, .L1146
	bl	_assert_fail
.LVL992:
.L1147:
	.align	2
.L1146:
	.word	.LANCHOR4+1712
	.cfi_endproc
.LFE827:
	.size	cap_page_directory_cap_get_capPDIsMapped.isra.135.part.136, .-cap_page_directory_cap_get_capPDIsMapped.isra.135.part.136
	.text
	.align	2
	.global	isValidVTableRoot
	.type	isValidVTableRoot, %function
isValidVTableRoot:
.LFB343:
	.loc 14 748 0
	.cfi_startproc
	@ args = 0, pretend = 0, frame = 8
	@ frame_needed = 0, uses_anonymous_args = 0
	str	lr, [sp, #-4]!
	.cfi_def_cfa_offset 4
	.cfi_offset 14, -4
	sub	sp, sp, #12
	.cfi_def_cfa_offset 16
	.loc 14 748 0
	add	r3, sp, #8
	stmdb	r3, {r0, r1}
	ldr	r0, [sp]
.LVL993:
.LBB5223:
.LBB5224:
	.loc 28 1035 0
	and	r3, r0, #14
	cmp	r3, #14
	.loc 28 1037 0
	uxtbeq	r3, r0
	.loc 28 1036 0
	andne	r3, r0, #15
.LBE5224:
.LBE5223:
	.loc 14 749 0
	cmp	r3, #9
	movne	r0, #0
	beq	.L1155
.L1151:
	.loc 14 751 0 discriminator 6
	add	sp, sp, #12
	.cfi_remember_state
	.cfi_def_cfa_offset 4
	@ sp needed
	ldr	pc, [sp], #4
.L1155:
	.cfi_restore_state
.LVL994:
.LBB5225:
.LBB5226:
	.loc 28 2176 0 discriminator 1
	and	r3, r0, #15
	cmp	r3, #9
.LBE5226:
.LBE5225:
	.loc 14 749 0 discriminator 1
	ubfxeq	r0, r0, #4, #1
.LBB5228:
.LBB5227:
	.loc 28 2176 0 discriminator 1
	beq	.L1151
	bl	cap_page_directory_cap_get_capPDIsMapped.isra.135.part.136
.LVL995:
.LBE5227:
.LBE5228:
	.cfi_endproc
.LFE343:
	.size	isValidVTableRoot, .-isValidVTableRoot
	.section	.text.unlikely
	.align	2
	.type	cap_page_directory_cap_get_capPDMappedASID.part.137, %function
cap_page_directory_cap_get_capPDMappedASID.part.137:
.LFB828:
	.loc 28 2133 0
	.cfi_startproc
	@ Volatile: function does not return.
	@ args = 0, pretend = 0, frame = 0
	@ frame_needed = 0, uses_anonymous_args = 0
	.loc 28 2135 0
	movw	r0, #:lower16:.LC45
	movw	r1, #:lower16:.LC30
	.loc 28 2133 0
	stmfd	sp!, {r3, lr}
	.cfi_def_cfa_offset 8
	.cfi_offset 3, -8
	.cfi_offset 14, -4
	.loc 28 2135 0
	movt	r0, #:upper16:.LC45
	movt	r1, #:upper16:.LC30
	movw	r2, #2136
	ldr	r3, .L1158
	bl	_assert_fail
.LVL996:
.L1159:
	.align	2
.L1158:
	.word	.LANCHOR4+1756
	.cfi_endproc
.LFE828:
	.size	cap_page_directory_cap_get_capPDMappedASID.part.137, .-cap_page_directory_cap_get_capPDMappedASID.part.137
	.align	2
	.type	cap_page_table_cap_set_capPTIsMapped.part.141, %function
cap_page_table_cap_set_capPTIsMapped.part.141:
.LFB832:
	.loc 28 2019 0
	.cfi_startproc
	@ Volatile: function does not return.
	@ args = 0, pretend = 0, frame = 0
	@ frame_needed = 0, uses_anonymous_args = 0
.LVL997:
	.loc 28 2020 0
	movw	r0, #:lower16:.LC44
	movw	r1, #:lower16:.LC30
	.loc 28 2019 0
	stmfd	sp!, {r3, lr}
	.cfi_def_cfa_offset 8
	.cfi_offset 3, -8
	.cfi_offset 14, -4
	.loc 28 2020 0
	movt	r0, #:upper16:.LC44
	movt	r1, #:upper16:.LC30
	movw	r2, #2021
	ldr	r3, .L1162
	bl	_assert_fail
.LVL998:
.L1163:
	.align	2
.L1162:
	.word	.LANCHOR4+1800
	.cfi_endproc
.LFE832:
	.size	cap_page_table_cap_set_capPTIsMapped.part.141, .-cap_page_table_cap_set_capPTIsMapped.part.141
	.align	2
	.type	generic_frame_cap_set_capFMappedAddress.part.142, %function
generic_frame_cap_set_capFMappedAddress.part.142:
.LFB833:
	.loc 38 154 0
	.cfi_startproc
	@ Volatile: function does not return.
	@ args = 0, pretend = 0, frame = 0
	@ frame_needed = 0, uses_anonymous_args = 0
.LVL999:
	.loc 38 159 0
	movw	r0, #:lower16:.LC42
	movw	r1, #:lower16:.LC43
	.loc 38 154 0
	stmfd	sp!, {r3, lr}
	.cfi_def_cfa_offset 8
	.cfi_offset 3, -8
	.cfi_offset 14, -4
	.loc 38 159 0
	movt	r0, #:upper16:.LC42
	movt	r1, #:upper16:.LC43
	mov	r2, #160
	ldr	r3, .L1166
	bl	_assert_fail
.LVL1000:
.L1167:
	.align	2
.L1166:
	.word	.LANCHOR4+1840
	.cfi_endproc
.LFE833:
	.size	generic_frame_cap_set_capFMappedAddress.part.142, .-generic_frame_cap_set_capFMappedAddress.part.142
	.align	2
	.type	pte_pte_large_new.part.143, %function
pte_pte_large_new.part.143:
.LFB834:
	.loc 28 2365 0
	.cfi_startproc
	@ Volatile: function does not return.
	@ args = 0, pretend = 0, frame = 0
	@ frame_needed = 0, uses_anonymous_args = 0
.LVL1001:
	.loc 28 2371 0
	movw	r0, #:lower16:.LC64
	movw	r1, #:lower16:.LC30
	.loc 28 2365 0
	stmfd	sp!, {r3, lr}
	.cfi_def_cfa_offset 8
	.cfi_offset 3, -8
	.cfi_offset 14, -4
	.loc 28 2371 0
	movt	r0, #:upper16:.LC64
	movt	r1, #:upper16:.LC30
	movw	r2, #2371
	ldr	r3, .L1170
	bl	_assert_fail
.LVL1002:
.L1171:
	.align	2
.L1170:
	.word	.LANCHOR4+1880
	.cfi_endproc
.LFE834:
	.size	pte_pte_large_new.part.143, .-pte_pte_large_new.part.143
	.align	2
	.type	message_info_new.part.144, %function
message_info_new.part.144:
.LFB835:
	.loc 41 14 0
	.cfi_startproc
	@ Volatile: function does not return.
	@ args = 0, pretend = 0, frame = 0
	@ frame_needed = 0, uses_anonymous_args = 0
.LVL1003:
	.loc 41 20 0
	movw	r0, #:lower16:.LC65
	movw	r1, #:lower16:.LC66
	.loc 41 14 0
	stmfd	sp!, {r3, lr}
	.cfi_def_cfa_offset 8
	.cfi_offset 3, -8
	.cfi_offset 14, -4
	.loc 41 20 0
	movt	r0, #:upper16:.LC65
	movt	r1, #:upper16:.LC66
	mov	r2, #20
	ldr	r3, .L1174
	bl	_assert_fail
.LVL1004:
.L1175:
	.align	2
.L1174:
	.word	.LANCHOR4+1900
	.cfi_endproc
.LFE835:
	.size	message_info_new.part.144, .-message_info_new.part.144
	.align	2
	.type	getSyscallArg.part.145, %function
getSyscallArg.part.145:
.LFB836:
	.file 43 "/home/neelesh/research/seL4-tutorials-manifest/kernel/include/api/syscall.h"
	.loc 43 27 0
	.cfi_startproc
	@ Volatile: function does not return.
	@ args = 0, pretend = 0, frame = 0
	@ frame_needed = 0, uses_anonymous_args = 0
.LVL1005:
	.loc 43 33 0
	movw	r0, #:lower16:.LC67
	movw	r1, #:lower16:.LC68
	.loc 43 27 0
	stmfd	sp!, {r3, lr}
	.cfi_def_cfa_offset 8
	.cfi_offset 3, -8
	.cfi_offset 14, -4
	.loc 43 33 0
	movt	r0, #:upper16:.LC67
	movt	r1, #:upper16:.LC68
	mov	r2, #33
	ldr	r3, .L1178
	bl	_assert_fail
.LVL1006:
.L1179:
	.align	2
.L1178:
	.word	.LANCHOR4+1920
	.cfi_endproc
.LFE836:
	.size	getSyscallArg.part.145, .-getSyscallArg.part.145
	.align	2
	.type	cap_untyped_cap_get_capBlockSize.part.146, %function
cap_untyped_cap_get_capBlockSize.part.146:
.LFB837:
	.loc 28 1112 0
	.cfi_startproc
	@ Volatile: function does not return.
	@ args = 0, pretend = 0, frame = 0
	@ frame_needed = 0, uses_anonymous_args = 0
	.loc 28 1114 0
	movw	r0, #:lower16:.LC37
	movw	r1, #:lower16:.LC30
	.loc 28 1112 0
	stmfd	sp!, {r3, lr}
	.cfi_def_cfa_offset 8
	.cfi_offset 3, -8
	.cfi_offset 14, -4
	.loc 28 1114 0
	movt	r0, #:upper16:.LC37
	movt	r1, #:upper16:.LC30
	movw	r2, #1115
	ldr	r3, .L1182
	bl	_assert_fail
.LVL1007:
.L1183:
	.align	2
.L1182:
	.word	.LANCHOR4+1936
	.cfi_endproc
.LFE837:
	.size	cap_untyped_cap_get_capBlockSize.part.146, .-cap_untyped_cap_get_capBlockSize.part.146
	.align	2
	.type	cap_asid_pool_cap_get_capASIDBase.part.147, %function
cap_asid_pool_cap_get_capASIDBase.part.147:
.LFB838:
	.loc 28 1951 0
	.cfi_startproc
	@ Volatile: function does not return.
	@ args = 0, pretend = 0, frame = 0
	@ frame_needed = 0, uses_anonymous_args = 0
	.loc 28 1953 0
	movw	r0, #:lower16:.LC46
	movw	r1, #:lower16:.LC30
	.loc 28 1951 0
	stmfd	sp!, {r3, lr}
	.cfi_def_cfa_offset 8
	.cfi_offset 3, -8
	.cfi_offset 14, -4
	.loc 28 1953 0
	movt	r0, #:upper16:.LC46
	movt	r1, #:upper16:.LC30
	movw	r2, #1954
	ldr	r3, .L1186
	bl	_assert_fail
.LVL1008:
.L1187:
	.align	2
.L1186:
	.word	.LANCHOR4+1972
	.cfi_endproc
.LFE838:
	.size	cap_asid_pool_cap_get_capASIDBase.part.147, .-cap_asid_pool_cap_get_capASIDBase.part.147
	.align	2
	.type	cap_page_table_cap_get_capPTMappedASID.part.148, %function
cap_page_table_cap_get_capPTMappedASID.part.148:
.LFB839:
	.loc 28 2044 0
	.cfi_startproc
	@ Volatile: function does not return.
	@ args = 0, pretend = 0, frame = 0
	@ frame_needed = 0, uses_anonymous_args = 0
	.loc 28 2046 0
	movw	r0, #:lower16:.LC44
	movw	r1, #:lower16:.LC30
	.loc 28 2044 0
	stmfd	sp!, {r3, lr}
	.cfi_def_cfa_offset 8
	.cfi_offset 3, -8
	.cfi_offset 14, -4
	.loc 28 2046 0
	movt	r0, #:upper16:.LC44
	movt	r1, #:upper16:.LC30
	movw	r2, #2047
	ldr	r3, .L1190
	bl	_assert_fail
.LVL1009:
.L1191:
	.align	2
.L1190:
	.word	.LANCHOR4+2008
	.cfi_endproc
.LFE839:
	.size	cap_page_table_cap_get_capPTMappedASID.part.148, .-cap_page_table_cap_get_capPTMappedASID.part.148
	.align	2
	.type	cap_cnode_cap_get_capCNodeRadix.part.149, %function
cap_cnode_cap_get_capCNodeRadix.part.149:
.LFB840:
	.loc 28 1535 0
	.cfi_startproc
	@ Volatile: function does not return.
	@ args = 0, pretend = 0, frame = 0
	@ frame_needed = 0, uses_anonymous_args = 0
	.loc 28 1537 0
	movw	r0, #:lower16:.LC38
	movw	r1, #:lower16:.LC30
	.loc 28 1535 0
	stmfd	sp!, {r3, lr}
	.cfi_def_cfa_offset 8
	.cfi_offset 3, -8
	.cfi_offset 14, -4
	.loc 28 1537 0
	movt	r0, #:upper16:.LC38
	movt	r1, #:upper16:.LC30
	movw	r2, #1538
	ldr	r3, .L1194
	bl	_assert_fail
.LVL1010:
.L1195:
	.align	2
.L1194:
	.word	.LANCHOR4+2048
	.cfi_endproc
.LFE840:
	.size	cap_cnode_cap_get_capCNodeRadix.part.149, .-cap_cnode_cap_get_capCNodeRadix.part.149
	.align	2
	.type	cap_untyped_cap_ptr_set_capFreeIndex.part.150, %function
cap_untyped_cap_ptr_set_capFreeIndex.part.150:
.LFB841:
	.loc 28 1099 0
	.cfi_startproc
	@ Volatile: function does not return.
	@ args = 0, pretend = 0, frame = 0
	@ frame_needed = 0, uses_anonymous_args = 0
.LVL1011:
	.loc 28 1101 0
	movw	r0, #:lower16:.LC69
	movw	r1, #:lower16:.LC30
	.loc 28 1099 0
	stmfd	sp!, {r3, lr}
	.cfi_def_cfa_offset 8
	.cfi_offset 3, -8
	.cfi_offset 14, -4
	.loc 28 1101 0
	movt	r0, #:upper16:.LC69
	movt	r1, #:upper16:.LC30
	movw	r2, #1102
	ldr	r3, .L1198
	bl	_assert_fail
.LVL1012:
.L1199:
	.align	2
.L1198:
	.word	.LANCHOR4+2080
	.cfi_endproc
.LFE841:
	.size	cap_untyped_cap_ptr_set_capFreeIndex.part.150, .-cap_untyped_cap_ptr_set_capFreeIndex.part.150
	.align	2
	.type	cap_asid_pool_cap_new.part.151, %function
cap_asid_pool_cap_new.part.151:
.LFB842:
	.loc 28 1931 0
	.cfi_startproc
	@ Volatile: function does not return.
	@ args = 0, pretend = 0, frame = 0
	@ frame_needed = 0, uses_anonymous_args = 0
.LVL1013:
	.loc 28 1938 0
	movw	r0, #:lower16:.LC70
	movw	r1, #:lower16:.LC30
	.loc 28 1931 0
	stmfd	sp!, {r3, lr}
	.cfi_def_cfa_offset 8
	.cfi_offset 3, -8
	.cfi_offset 14, -4
	.loc 28 1938 0
	movt	r0, #:upper16:.LC70
	movt	r1, #:upper16:.LC30
	movw	r2, #1938
	ldr	r3, .L1202
	bl	_assert_fail
.LVL1014:
.L1203:
	.align	2
.L1202:
	.word	.LANCHOR4+2120
	.cfi_endproc
.LFE842:
	.size	cap_asid_pool_cap_new.part.151, .-cap_asid_pool_cap_new.part.151
	.text
	.align	2
	.global	ackInterrupt
	.type	ackInterrupt, %function
ackInterrupt:
.LFB439:
	.loc 7 357 0
	.cfi_startproc
	@ args = 0, pretend = 0, frame = 0
	@ frame_needed = 0, uses_anonymous_args = 0
.LVL1015:
	.loc 7 358 0
	movw	r1, #:lower16:.LANCHOR1
	.loc 7 357 0
	stmfd	sp!, {r3, lr}
	.cfi_def_cfa_offset 8
	.cfi_offset 3, -8
	.cfi_offset 14, -4
	.loc 7 358 0
	movt	r1, #:upper16:.LANCHOR1
	ldr	ip, [r1, #8]
	ubfx	r2, ip, #0, #10
	cmp	r2, #1020
	bcs	.L1205
	.loc 7 358 0 is_stmt 0 discriminator 2
	cmp	r2, r0
	bne	.L1205
.LVL1016:
.LBB5239:
.LBB5240:
	.loc 7 157 0 is_stmt 1
	mov	r0, r2, lsr #4
.LVL1017:
	.loc 7 159 0
	ldr	lr, [r1]
	.loc 7 158 0
	and	r3, r2, #15
	.loc 7 159 0
	add	r0, r0, #768
	.loc 7 158 0
	mov	r3, r3, asl #1
	.loc 7 159 0
	ldr	r0, [lr, r0, asl #2]
	add	r3, r3, #1
	mov	r3, r0, lsr r3
.LBE5240:
.LBE5239:
	.loc 7 359 0
	tst	r3, #1
	beq	.L1207
.LVL1018:
.LBB5241:
.LBB5242:
	.loc 7 179 0
	mov	r3, r2, lsr #5
.LVL1019:
	.loc 7 182 0
	mov	r0, #1
	.loc 7 180 0
	and	r2, r2, #31
	.loc 7 182 0
	mov	r2, r0, asl r2
	add	r3, r3, #160
.LVL1020:
	str	r2, [lr, r3, asl #2]
.LVL1021:
.L1207:
.LBE5242:
.LBE5241:
	.loc 7 362 0
	ldr	r3, [r1, #4]
	.loc 7 363 0
	movw	r2, #1023
	str	r2, [r1, #8]
	.loc 7 362 0
	str	ip, [r3, #16]
	ldmfd	sp!, {r3, pc}
.LVL1022:
.L1205:
.LBB5243:
.LBB5244:
	.loc 7 358 0
	movw	r0, #:lower16:.LC71
.LVL1023:
	movw	r1, #:lower16:.LC72
	movt	r0, #:upper16:.LC71
	movt	r1, #:upper16:.LC72
	movw	r2, #358
	ldr	r3, .L1212
	bl	_assert_fail
.LVL1024:
.L1213:
	.align	2
.L1212:
	.word	.LANCHOR4+2144
.LBE5244:
.LBE5243:
	.cfi_endproc
.LFE439:
	.size	ackInterrupt, .-ackInterrupt
	.align	2
	.global	plat_cleanL2Range
	.type	plat_cleanL2Range, %function
plat_cleanL2Range:
.LFB446:
	.loc 20 368 0
	.cfi_startproc
	@ args = 0, pretend = 0, frame = 0
	@ frame_needed = 0, uses_anonymous_args = 0
.LVL1025:
	.loc 20 371 0
	movw	r2, #:lower16:.LANCHOR1
	.loc 20 368 0
	stmfd	sp!, {r3, lr}
	.cfi_def_cfa_offset 8
	.cfi_offset 3, -8
	.cfi_offset 14, -4
	.loc 20 371 0
	movt	r2, #:upper16:.LANCHOR1
	ldr	r3, [r2, #12]
	ldr	ip, [r3, #4]
	tst	ip, #12288
	bne	.L1223
	.loc 20 374 0
	add	r1, r1, #32
.LVL1026:
	.loc 20 373 0
	bic	r0, r0, #31
.LVL1027:
	.loc 20 374 0
	bic	r1, r1, #31
.LVL1028:
	.loc 20 373 0
	cmp	r0, r1
	beq	.L1219
.L1218:
	.loc 20 376 0
	str	r0, [r3, #1968]
	.loc 20 375 0
	add	r0, r0, #32
.LVL1029:
	.loc 20 373 0
	cmp	r0, r1
	bne	.L1218
.L1219:
.LBB5255:
.LBB5256:
.LBB5257:
.LBB5258:
	.loc 2 23 0
@ 23 "/home/neelesh/research/seL4-tutorials-manifest/kernel/include/arch/arm/armv/armv7-a/armv/machine.h" 1
	dmb
@ 0 "" 2
.LBE5258:
.LBE5257:
	.loc 20 353 0
	ldr	r2, [r2, #12]
	mov	r3, #0
	str	r3, [r2, #1840]
.L1217:
	.loc 20 354 0
	ldr	r3, [r2, #1840]
	tst	r3, #1
	bne	.L1217
.LBE5256:
.LBE5255:
	.loc 20 381 0
	ldmfd	sp!, {r3, pc}
.LVL1030:
.L1223:
.LBB5259:
.LBB5260:
	.loc 20 371 0
	movw	r0, #:lower16:.LC73
.LVL1031:
	movw	r1, #:lower16:.LC74
.LVL1032:
	movt	r0, #:upper16:.LC73
	movt	r1, #:upper16:.LC74
	movw	r2, #371
	ldr	r3, .L1224
	bl	_assert_fail
.LVL1033:
.L1225:
	.align	2
.L1224:
	.word	.LANCHOR4+2160
.LBE5260:
.LBE5259:
	.cfi_endproc
.LFE446:
	.size	plat_cleanL2Range, .-plat_cleanL2Range
	.align	2
	.global	cleanCacheRange_RAM
	.type	cleanCacheRange_RAM, %function
cleanCacheRange_RAM:
.LFB384:
	.loc 15 63 0
	.cfi_startproc
	@ args = 0, pretend = 0, frame = 0
	@ frame_needed = 0, uses_anonymous_args = 0
.LVL1034:
	stmfd	sp!, {r4, lr}
	.cfi_def_cfa_offset 8
	.cfi_offset 4, -8
	.cfi_offset 14, -4
.LBB5261:
.LBB5262:
	.loc 15 25 0
	mov	lr, r1, lsr #5
	mov	r3, r0, lsr #5
.LBE5262:
.LBE5261:
	.loc 15 63 0
	mov	r4, r0
.LVL1035:
.LBB5268:
.LBB5267:
	.loc 15 25 0
	add	lr, lr, #1
	cmp	r3, lr
	bcs	.L1228
.L1229:
.LVL1036:
	.loc 15 26 0
	mov	ip, r3, asl #5
.LVL1037:
.LBB5263:
.LBB5264:
	.loc 4 192 0
@ 192 "/home/neelesh/research/seL4-tutorials-manifest/kernel/include/arch/arm/arch/machine.h" 1
	mcr p15, 0, ip, c7, c10, 1
@ 0 "" 2
.LBB5265:
.LBB5266:
	.loc 2 23 0
@ 23 "/home/neelesh/research/seL4-tutorials-manifest/kernel/include/arch/arm/armv/armv7-a/armv/machine.h" 1
	dmb
@ 0 "" 2
.LBE5266:
.LBE5265:
.LBE5264:
.LBE5263:
	.loc 15 25 0
	add	r3, r3, #1
.LVL1038:
	cmp	r3, lr
	bne	.L1229
.LVL1039:
.L1228:
.LBE5267:
.LBE5268:
.LBB5269:
.LBB5270:
	.loc 2 17 0
@ 17 "/home/neelesh/research/seL4-tutorials-manifest/kernel/include/arch/arm/armv/armv7-a/armv/machine.h" 1
	dsb
@ 0 "" 2
	add	r1, r1, r2
.LVL1040:
.LBE5270:
.LBE5269:
	.loc 15 81 0
	mov	r0, r2
.LVL1041:
	rsb	r1, r4, r1
	.loc 15 82 0
	ldmfd	sp!, {r4, lr}
	.cfi_restore 14
	.cfi_restore 4
	.cfi_def_cfa_offset 0
.LVL1042:
	.loc 15 81 0
	b	plat_cleanL2Range
.LVL1043:
	.cfi_endproc
.LFE384:
	.size	cleanCacheRange_RAM, .-cleanCacheRange_RAM
	.align	2
	.global	plat_invalidateL2Range
	.type	plat_invalidateL2Range, %function
plat_invalidateL2Range:
.LFB447:
	.loc 20 384 0
	.cfi_startproc
	@ args = 0, pretend = 0, frame = 0
	@ frame_needed = 0, uses_anonymous_args = 0
.LVL1044:
	.loc 20 387 0
	movw	r2, #:lower16:.LANCHOR1
	.loc 20 384 0
	stmfd	sp!, {r3, lr}
	.cfi_def_cfa_offset 8
	.cfi_offset 3, -8
	.cfi_offset 14, -4
	.loc 20 387 0
	movt	r2, #:upper16:.LANCHOR1
	ldr	r3, [r2, #12]
	ldr	ip, [r3, #4]
	tst	ip, #12288
	bne	.L1241
	.loc 20 393 0
	add	r1, r1, #32
.LVL1045:
	.loc 20 392 0
	bic	r0, r0, #31
.LVL1046:
	.loc 20 393 0
	bic	r1, r1, #31
.LVL1047:
	.loc 20 392 0
	cmp	r0, r1
	beq	.L1237
.L1236:
	.loc 20 395 0
	str	r0, [r3, #1904]
	.loc 20 394 0
	add	r0, r0, #32
.LVL1048:
	.loc 20 392 0
	cmp	r0, r1
	bne	.L1236
.L1237:
.LBB5281:
.LBB5282:
.LBB5283:
.LBB5284:
	.loc 2 23 0
@ 23 "/home/neelesh/research/seL4-tutorials-manifest/kernel/include/arch/arm/armv/armv7-a/armv/machine.h" 1
	dmb
@ 0 "" 2
.LBE5284:
.LBE5283:
	.loc 20 353 0
	ldr	r2, [r2, #12]
	mov	r3, #0
	str	r3, [r2, #1840]
.L1235:
	.loc 20 354 0
	ldr	r3, [r2, #1840]
	tst	r3, #1
	bne	.L1235
.LBE5282:
.LBE5281:
	.loc 20 400 0
	ldmfd	sp!, {r3, pc}
.LVL1049:
.L1241:
.LBB5285:
.LBB5286:
	.loc 20 387 0
	movw	r0, #:lower16:.LC73
.LVL1050:
	movw	r1, #:lower16:.LC74
.LVL1051:
	movt	r0, #:upper16:.LC73
	movt	r1, #:upper16:.LC74
	movw	r2, #387
	ldr	r3, .L1242
	bl	_assert_fail
.LVL1052:
.L1243:
	.align	2
.L1242:
	.word	.LANCHOR4+2180
.LBE5286:
.LBE5285:
	.cfi_endproc
.LFE447:
	.size	plat_invalidateL2Range, .-plat_invalidateL2Range
	.align	2
	.global	invalidateCacheRange_RAM
	.type	invalidateCacheRange_RAM, %function
invalidateCacheRange_RAM:
.LFB386:
	.loc 15 103 0
	.cfi_startproc
	@ args = 0, pretend = 0, frame = 0
	@ frame_needed = 0, uses_anonymous_args = 0
.LVL1053:
	.loc 15 112 0
	bic	r3, r0, #31
	.loc 15 103 0
	stmfd	sp!, {r4, r5, r6, lr}
	.cfi_def_cfa_offset 16
	.cfi_offset 4, -16
	.cfi_offset 5, -12
	.cfi_offset 6, -8
	.cfi_offset 14, -4
	.loc 15 112 0
	cmp	r3, r0
	.loc 15 103 0
	mov	r4, r0
	mov	r5, r1
	mov	r6, r2
	.loc 15 112 0
	beq	.L1245
	.loc 15 113 0
	mov	r1, r0
.LVL1054:
	bl	cleanCacheRange_RAM
.LVL1055:
.L1245:
	.loc 15 115 0
	add	r3, r5, #1
	bic	r2, r3, #31
	cmp	r3, r2
	beq	.L1246
	.loc 15 116 0
	bic	r0, r5, #31
.LVL1056:
	add	r2, r0, r6
	.loc 15 117 0
	mov	r1, r0
	rsb	r2, r4, r2
	bl	cleanCacheRange_RAM
.LVL1057:
.L1246:
	add	r1, r6, r5
	.loc 15 128 0
	mov	r0, r6
	rsb	r1, r4, r1
	bl	plat_invalidateL2Range
.LVL1058:
	.loc 15 136 0
	mov	r1, r5, lsr #5
	mov	r3, r4, lsr #5
.LVL1059:
	add	r1, r1, #1
	cmp	r3, r1
	bcs	.L1248
.L1249:
.LVL1060:
	.loc 15 137 0 discriminator 3
	mov	r2, r3, asl #5
.LVL1061:
.LBB5287:
.LBB5288:
	.loc 4 227 0 discriminator 3
@ 227 "/home/neelesh/research/seL4-tutorials-manifest/kernel/include/arch/arm/arch/machine.h" 1
	mcr p15, 0, r2, c7, c6, 1
@ 0 "" 2
.LBB5289:
.LBB5290:
	.loc 2 23 0 discriminator 3
@ 23 "/home/neelesh/research/seL4-tutorials-manifest/kernel/include/arch/arm/armv/armv7-a/armv/machine.h" 1
	dmb
@ 0 "" 2
.LBE5290:
.LBE5289:
.LBE5288:
.LBE5287:
	.loc 15 136 0 discriminator 3
	add	r3, r3, #1
.LVL1062:
	cmp	r3, r1
	bne	.L1249
.LVL1063:
.L1248:
.LBB5291:
.LBB5292:
	.loc 2 17 0
@ 17 "/home/neelesh/research/seL4-tutorials-manifest/kernel/include/arch/arm/armv/armv7-a/armv/machine.h" 1
	dsb
@ 0 "" 2
	ldmfd	sp!, {r4, r5, r6, pc}
.LBE5292:
.LBE5291:
	.cfi_endproc
.LFE386:
	.size	invalidateCacheRange_RAM, .-invalidateCacheRange_RAM
	.align	2
	.global	plat_cleanInvalidateL2Range
	.type	plat_cleanInvalidateL2Range, %function
plat_cleanInvalidateL2Range:
.LFB448:
	.loc 20 403 0
	.cfi_startproc
	@ args = 0, pretend = 0, frame = 0
	@ frame_needed = 0, uses_anonymous_args = 0
.LVL1064:
	.loc 20 406 0
	movw	r2, #:lower16:.LANCHOR1
	.loc 20 403 0
	stmfd	sp!, {r3, lr}
	.cfi_def_cfa_offset 8
	.cfi_offset 3, -8
	.cfi_offset 14, -4
	.loc 20 406 0
	movt	r2, #:upper16:.LANCHOR1
	ldr	r3, [r2, #12]
	ldr	ip, [r3, #4]
	tst	ip, #12288
	bne	.L1262
	.loc 20 409 0
	add	r1, r1, #32
.LVL1065:
	.loc 20 408 0
	bic	r0, r0, #31
.LVL1066:
	.loc 20 409 0
	bic	r1, r1, #31
.LVL1067:
	.loc 20 408 0
	cmp	r0, r1
	beq	.L1258
.L1257:
	.loc 20 412 0
	str	r0, [r3, #1968]
.LBB5307:
.LBB5308:
	.loc 2 23 0
@ 23 "/home/neelesh/research/seL4-tutorials-manifest/kernel/include/arch/arm/armv/armv7-a/armv/machine.h" 1
	dmb
@ 0 "" 2
.LBE5308:
.LBE5307:
	.loc 20 414 0
	ldr	r3, [r2, #12]
	str	r0, [r3, #1904]
	.loc 20 410 0
	add	r0, r0, #32
.LVL1068:
	.loc 20 408 0
	cmp	r0, r1
	bne	.L1257
.L1258:
.LBB5309:
.LBB5310:
.LBB5311:
.LBB5312:
	.loc 2 23 0
@ 23 "/home/neelesh/research/seL4-tutorials-manifest/kernel/include/arch/arm/armv/armv7-a/armv/machine.h" 1
	dmb
@ 0 "" 2
.LBE5312:
.LBE5311:
	.loc 20 353 0
	ldr	r2, [r2, #12]
	mov	r3, #0
	str	r3, [r2, #1840]
.L1256:
	.loc 20 354 0
	ldr	r3, [r2, #1840]
	tst	r3, #1
	bne	.L1256
.LBE5310:
.LBE5309:
	.loc 20 419 0
	ldmfd	sp!, {r3, pc}
.LVL1069:
.L1262:
.LBB5313:
.LBB5314:
	.loc 20 406 0
	movw	r0, #:lower16:.LC73
.LVL1070:
	movw	r1, #:lower16:.LC74
.LVL1071:
	movt	r0, #:upper16:.LC73
	movt	r1, #:upper16:.LC74
	movw	r2, #406
	ldr	r3, .L1263
	bl	_assert_fail
.LVL1072:
.L1264:
	.align	2
.L1263:
	.word	.LANCHOR4+2204
.LBE5314:
.LBE5313:
	.cfi_endproc
.LFE448:
	.size	plat_cleanInvalidateL2Range, .-plat_cleanInvalidateL2Range
	.align	2
	.global	cleanInvalidateCacheRange_RAM
	.type	cleanInvalidateCacheRange_RAM, %function
cleanInvalidateCacheRange_RAM:
.LFB383:
	.loc 15 33 0
	.cfi_startproc
	@ args = 0, pretend = 0, frame = 0
	@ frame_needed = 0, uses_anonymous_args = 0
.LVL1073:
	stmfd	sp!, {r3, r4, r5, lr}
	.cfi_def_cfa_offset 16
	.cfi_offset 3, -16
	.cfi_offset 4, -12
	.cfi_offset 5, -8
	.cfi_offset 14, -4
.LBB5315:
.LBB5316:
	.loc 15 25 0
	mov	r5, r1, lsr #5
	mov	r4, r0, lsr #5
.LVL1074:
.LBE5316:
.LBE5315:
	.loc 15 33 0
	mov	lr, r0
.LBB5322:
.LBB5321:
	.loc 15 25 0
	add	r5, r5, #1
	cmp	r4, r5
	movcc	r3, r4
	bcs	.L1269
.LVL1075:
.L1266:
	.loc 15 26 0
	mov	ip, r3, asl #5
.LVL1076:
.LBB5317:
.LBB5318:
	.loc 4 192 0
@ 192 "/home/neelesh/research/seL4-tutorials-manifest/kernel/include/arch/arm/arch/machine.h" 1
	mcr p15, 0, ip, c7, c10, 1
@ 0 "" 2
.LBB5319:
.LBB5320:
	.loc 2 23 0
@ 23 "/home/neelesh/research/seL4-tutorials-manifest/kernel/include/arch/arm/armv/armv7-a/armv/machine.h" 1
	dmb
@ 0 "" 2
.LBE5320:
.LBE5319:
.LBE5318:
.LBE5317:
	.loc 15 25 0
	add	r3, r3, #1
.LVL1077:
	cmp	r3, r5
	bne	.L1266
.LVL1078:
.L1269:
.LBE5321:
.LBE5322:
.LBB5323:
.LBB5324:
	.loc 2 17 0
@ 17 "/home/neelesh/research/seL4-tutorials-manifest/kernel/include/arch/arm/armv/armv7-a/armv/machine.h" 1
	dsb
@ 0 "" 2
	add	r1, r1, r2
.LVL1079:
.LBE5324:
.LBE5323:
	.loc 15 47 0
	mov	r0, r2
.LVL1080:
	rsb	r1, lr, r1
	bl	plat_cleanInvalidateL2Range
.LVL1081:
	.loc 15 53 0
	cmp	r4, r5
	bcs	.L1268
.L1271:
.LVL1082:
	.loc 15 54 0 discriminator 3
	mov	r3, r4, asl #5
.LVL1083:
.LBB5325:
.LBB5326:
	.loc 4 268 0 discriminator 3
@ 268 "/home/neelesh/research/seL4-tutorials-manifest/kernel/include/arch/arm/arch/machine.h" 1
	mcr p15, 0, r3, c7, c14, 1
@ 0 "" 2
.LBB5327:
.LBB5328:
	.loc 2 17 0 discriminator 3
@ 17 "/home/neelesh/research/seL4-tutorials-manifest/kernel/include/arch/arm/armv/armv7-a/armv/machine.h" 1
	dsb
@ 0 "" 2
.LBE5328:
.LBE5327:
.LBE5326:
.LBE5325:
	.loc 15 53 0 discriminator 3
	add	r4, r4, #1
.LVL1084:
	cmp	r4, r5
	bne	.L1271
.LVL1085:
.L1268:
.LBB5329:
.LBB5330:
	.loc 2 17 0
@ 17 "/home/neelesh/research/seL4-tutorials-manifest/kernel/include/arch/arm/armv/armv7-a/armv/machine.h" 1
	dsb
@ 0 "" 2
	ldmfd	sp!, {r3, r4, r5, pc}
.LBE5330:
.LBE5329:
	.cfi_endproc
.LFE383:
	.size	cleanInvalidateCacheRange_RAM, .-cleanInvalidateCacheRange_RAM
	.align	2
	.global	doFlush
	.type	doFlush, %function
doFlush:
.LFB377:
	.loc 14 2225 0
	.cfi_startproc
	@ args = 0, pretend = 0, frame = 0
	@ frame_needed = 0, uses_anonymous_args = 0
.LVL1086:
	.loc 14 2230 0
	sub	ip, r0, #29
	.loc 14 2225 0
	stmfd	sp!, {r3, lr}
	.cfi_def_cfa_offset 8
	.cfi_offset 3, -8
	.cfi_offset 14, -4
	.loc 14 2225 0
	mov	r0, r1
.LVL1087:
	.loc 14 2230 0
	cmp	ip, #12
	ldrls	pc, [pc, ip, asl #2]
	b	.L1277
.L1279:
	.word	.L1278
	.word	.L1280
	.word	.L1281
	.word	.L1282
	.word	.L1277
	.word	.L1277
	.word	.L1277
	.word	.L1277
	.word	.L1277
	.word	.L1278
	.word	.L1280
	.word	.L1281
	.word	.L1282
.L1282:
.LVL1088:
.LBB5331:
.LBB5332:
	.loc 15 95 0
	mov	r2, r2, lsr #5
.LVL1089:
	mov	r0, r1, lsr #5
.LVL1090:
	add	r2, r2, #1
	cmp	r0, r2
	movcc	r3, r0
.LVL1091:
	bcs	.L1286
.LVL1092:
.L1283:
	.loc 15 96 0
	mov	r1, r3, asl #5
.LVL1093:
.LBB5333:
.LBB5334:
	.loc 4 212 0
@ 212 "/home/neelesh/research/seL4-tutorials-manifest/kernel/include/arch/arm/arch/machine.h" 1
	mcr p15, 0, r1, c7, c11, 1
@ 0 "" 2
.LBB5335:
.LBB5336:
	.loc 2 23 0
@ 23 "/home/neelesh/research/seL4-tutorials-manifest/kernel/include/arch/arm/armv/armv7-a/armv/machine.h" 1
	dmb
@ 0 "" 2
.LBE5336:
.LBE5335:
.LBE5334:
.LBE5333:
	.loc 15 95 0
	add	r3, r3, #1
.LVL1094:
	cmp	r3, r2
	bne	.L1283
.LVL1095:
.L1286:
.LBE5332:
.LBE5331:
.LBB5337:
.LBB5338:
	.loc 2 17 0
@ 17 "/home/neelesh/research/seL4-tutorials-manifest/kernel/include/arch/arm/armv/armv7-a/armv/machine.h" 1
	dsb
@ 0 "" 2
.LVL1096:
.LBE5338:
.LBE5337:
.LBB5339:
.LBB5340:
	.loc 15 150 0
	cmp	r0, r2
	movcc	r3, r0
	bcs	.L1285
.LVL1097:
.L1284:
	.loc 15 151 0
	mov	r1, r3, asl #5
.LVL1098:
.LBB5341:
.LBB5342:
	.loc 4 240 0
@ 240 "/home/neelesh/research/seL4-tutorials-manifest/kernel/include/arch/arm/arch/machine.h" 1
	mcr p15, 0, r1, c7, c5, 1
@ 0 "" 2
.LBB5343:
.LBB5344:
	.loc 2 29 0
@ 29 "/home/neelesh/research/seL4-tutorials-manifest/kernel/include/arch/arm/armv/armv7-a/armv/machine.h" 1
	isb
@ 0 "" 2
.LBE5344:
.LBE5343:
.LBE5342:
.LBE5341:
	.loc 15 150 0
	add	r3, r3, #1
.LVL1099:
	cmp	r3, r2
	bne	.L1284
.LVL1100:
.L1291:
.LBE5340:
.LBE5339:
.LBB5345:
.LBB5346:
	.loc 15 163 0
	mov	r3, r0, asl #5
.LVL1101:
.LBB5347:
.LBB5348:
	.loc 4 277 0
@ 277 "/home/neelesh/research/seL4-tutorials-manifest/kernel/include/arch/arm/arch/machine.h" 1
	mcr p15, 0, r3, c7, c5, 7
@ 0 "" 2
.LBE5348:
.LBE5347:
	.loc 15 162 0
	add	r0, r0, #1
.LVL1102:
	cmp	r0, r2
	bne	.L1291
.LVL1103:
.L1285:
.LBE5346:
.LBE5345:
.LBB5349:
.LBB5350:
	.loc 2 29 0
@ 29 "/home/neelesh/research/seL4-tutorials-manifest/kernel/include/arch/arm/armv/armv7-a/armv/machine.h" 1
	isb
@ 0 "" 2
	ldmfd	sp!, {r3, pc}
.LVL1104:
.L1281:
.LBE5350:
.LBE5349:
	.loc 14 2241 0
	mov	r1, r2
	mov	r2, r3
.LVL1105:
	.loc 14 2261 0
	ldmfd	sp!, {r3, lr}
	.cfi_remember_state
	.cfi_restore 14
	.cfi_restore 3
	.cfi_def_cfa_offset 0
.LVL1106:
	.loc 14 2241 0
	b	cleanInvalidateCacheRange_RAM
.LVL1107:
.L1280:
	.cfi_restore_state
	.loc 14 2237 0
	mov	r1, r2
	mov	r2, r3
.LVL1108:
	.loc 14 2261 0
	ldmfd	sp!, {r3, lr}
	.cfi_remember_state
	.cfi_restore 14
	.cfi_restore 3
	.cfi_def_cfa_offset 0
.LVL1109:
	.loc 14 2237 0
	b	invalidateCacheRange_RAM
.LVL1110:
.L1278:
	.cfi_restore_state
	.loc 14 2233 0
	mov	r1, r2
	mov	r2, r3
.LVL1111:
	.loc 14 2261 0
	ldmfd	sp!, {r3, lr}
	.cfi_remember_state
	.cfi_restore 14
	.cfi_restore 3
	.cfi_def_cfa_offset 0
.LVL1112:
	.loc 14 2233 0
	b	cleanCacheRange_RAM
.LVL1113:
.L1277:
	.cfi_restore_state
	.loc 14 2259 0
	movw	r0, #:lower16:.LC75
.LVL1114:
	movw	r1, #:lower16:.LC23
.LVL1115:
	movt	r0, #:upper16:.LC75
	movt	r1, #:upper16:.LC23
	movw	r2, #2259
.LVL1116:
	ldr	r3, .L1297
.LVL1117:
	bl	_fail
.LVL1118:
.L1298:
	.align	2
.L1297:
	.word	.LANCHOR4+2232
	.cfi_endproc
.LFE377:
	.size	doFlush, .-doFlush
	.align	2
	.global	Arch_maskCapRights
	.type	Arch_maskCapRights, %function
Arch_maskCapRights:
.LFB454:
	.loc 23 82 0
	.cfi_startproc
	@ args = 0, pretend = 0, frame = 8
	@ frame_needed = 0, uses_anonymous_args = 0
.LVL1119:
	stmfd	sp!, {r4, r5, r6, lr}
	.cfi_def_cfa_offset 16
	.cfi_offset 4, -16
	.cfi_offset 5, -12
	.cfi_offset 6, -8
	.cfi_offset 14, -4
	sub	sp, sp, #8
	.cfi_def_cfa_offset 24
	.loc 23 82 0
	add	ip, sp, #8
	mov	r5, r0
	stmdb	ip, {r2, r3}
	ldr	r6, [sp]
.LVL1120:
	ldr	r4, [sp, #4]
.LVL1121:
.LBB5365:
.LBB5366:
	.loc 28 1035 0
	and	r3, r6, #14
	cmp	r3, #14
	beq	.L1300
	.loc 28 1036 0
	and	r3, r6, #15
.LBE5366:
.LBE5365:
	.loc 23 83 0
	cmp	r3, #1
	beq	.L1301
.L1302:
	.loc 23 91 0
	cmp	r3, #3
	.loc 23 100 0
	strne	r6, [r5]
	strne	r4, [r5, #4]
	.loc 23 91 0
	beq	.L1315
	.loc 23 102 0
	mov	r0, r5
.LVL1122:
	add	sp, sp, #8
	.cfi_remember_state
	.cfi_def_cfa_offset 16
	@ sp needed
	ldmfd	sp!, {r4, r5, r6, pc}
.LVL1123:
.L1300:
	.cfi_restore_state
.LBB5368:
.LBB5367:
	.loc 28 1037 0
	uxtb	r3, r6
.LBE5367:
.LBE5368:
	.loc 23 83 0
	cmp	r3, #1
	bne	.L1302
.LVL1124:
	and	r3, r6, #15
.LBB5369:
.LBB5370:
.LBB5371:
	.loc 28 1677 0
	cmp	r3, #1
	bne	.L1316
.LVL1125:
.L1301:
.LBE5371:
.LBE5370:
	.loc 23 88 0
	ubfx	r0, r4, #20, #2
.LVL1126:
	bl	maskVMRights
.LVL1127:
.LBB5373:
.LBB5374:
	.loc 28 1693 0
	movw	r3, #4092
	and	r3, r3, r0
	cmp	r3, #0
	bne	.L1317
.LVL1128:
	.loc 28 1696 0
	mov	r0, r0, asl #20
.LVL1129:
	.loc 28 1695 0
	bic	r4, r4, #3145728
.LVL1130:
	.loc 28 1697 0
	str	r6, [r5]
	.loc 28 1696 0
	and	r0, r0, #3145728
	orr	r0, r0, r4
.LVL1131:
	.loc 28 1697 0
	str	r0, [r5, #4]
.LBE5374:
.LBE5373:
.LBE5369:
	.loc 23 102 0
	mov	r0, r5
.LVL1132:
	add	sp, sp, #8
	.cfi_remember_state
	.cfi_def_cfa_offset 16
	@ sp needed
	ldmfd	sp!, {r4, r5, r6, pc}
.LVL1133:
.L1315:
	.cfi_restore_state
.LBB5378:
.LBB5379:
.LBB5380:
	.loc 28 1841 0
	and	r3, r6, #15
	cmp	r3, #3
	bne	.L1318
.LVL1134:
.LBE5380:
.LBE5379:
	.loc 23 96 0
	ubfx	r0, r4, #18, #2
.LVL1135:
	bl	maskVMRights
.LVL1136:
.LBB5382:
.LBB5383:
	.loc 28 1857 0
	movw	r3, #16380
	and	r3, r3, r0
	cmp	r3, #0
	bne	.L1319
	.loc 28 1860 0
	mov	r0, r0, asl #18
.LVL1137:
	.loc 28 1859 0
	bic	r4, r4, #786432
.LVL1138:
	.loc 28 1861 0
	str	r6, [r5]
	.loc 28 1860 0
	and	r0, r0, #786432
	orr	r0, r0, r4
	.loc 28 1861 0
	str	r0, [r5, #4]
.LBE5383:
.LBE5382:
.LBE5378:
	.loc 23 102 0
	mov	r0, r5
	add	sp, sp, #8
	.cfi_remember_state
	.cfi_def_cfa_offset 16
	@ sp needed
	ldmfd	sp!, {r4, r5, r6, pc}
.LVL1139:
.L1316:
	.cfi_restore_state
.LBB5387:
.LBB5376:
.LBB5372:
	bl	cap_small_frame_cap_get_capFVMRights.part.117
.LVL1140:
.L1317:
.LBE5372:
.LBE5376:
.LBB5377:
.LBB5375:
	.loc 28 1693 0
	movw	r0, #:lower16:.LC76
.LVL1141:
	movw	r1, #:lower16:.LC30
	movt	r0, #:upper16:.LC76
	movt	r1, #:upper16:.LC30
	movw	r2, #1693
	ldr	r3, .L1320
	bl	_assert_fail
.LVL1142:
.L1318:
.LBE5375:
.LBE5377:
.LBE5387:
.LBB5388:
.LBB5385:
.LBB5381:
	bl	cap_frame_cap_get_capFVMRights.part.118
.LVL1143:
.L1319:
.LBE5381:
.LBE5385:
.LBB5386:
.LBB5384:
	.loc 28 1857 0
	movw	r0, #:lower16:.LC77
.LVL1144:
	movw	r1, #:lower16:.LC30
	movt	r0, #:upper16:.LC77
	movt	r1, #:upper16:.LC30
	movw	r2, #1857
	ldr	r3, .L1320+4
	bl	_assert_fail
.LVL1145:
.L1321:
	.align	2
.L1320:
	.word	.LANCHOR4+2240
	.word	.LANCHOR4+2280
.LBE5384:
.LBE5386:
.LBE5388:
	.cfi_endproc
.LFE454:
	.size	Arch_maskCapRights, .-Arch_maskCapRights
	.section	.text.unlikely
	.align	2
	.type	fault_cap_fault_get_address.part.157, %function
fault_cap_fault_get_address.part.157:
.LFB848:
	.loc 28 603 0
	.cfi_startproc
	@ Volatile: function does not return.
	@ args = 0, pretend = 0, frame = 0
	@ frame_needed = 0, uses_anonymous_args = 0
	.loc 28 605 0
	movw	r0, #:lower16:.LC78
	movw	r1, #:lower16:.LC30
	.loc 28 603 0
	stmfd	sp!, {r3, lr}
	.cfi_def_cfa_offset 8
	.cfi_offset 3, -8
	.cfi_offset 14, -4
	.loc 28 605 0
	movt	r0, #:upper16:.LC78
	movt	r1, #:upper16:.LC30
	movw	r2, #606
	ldr	r3, .L1324
	bl	_assert_fail
.LVL1146:
.L1325:
	.align	2
.L1324:
	.word	.LANCHOR4+2312
	.cfi_endproc
.LFE848:
	.size	fault_cap_fault_get_address.part.157, .-fault_cap_fault_get_address.part.157
	.align	2
	.type	fault_cap_fault_get_inReceivePhase.isra.158.part.159, %function
fault_cap_fault_get_inReceivePhase.isra.158.part.159:
.LFB850:
	.loc 28 617 0
	.cfi_startproc
	@ Volatile: function does not return.
	@ args = 0, pretend = 0, frame = 0
	@ frame_needed = 0, uses_anonymous_args = 0
	.loc 28 619 0
	movw	r0, #:lower16:.LC78
	movw	r1, #:lower16:.LC30
	.loc 28 617 0
	stmfd	sp!, {r3, lr}
	.cfi_def_cfa_offset 8
	.cfi_offset 3, -8
	.cfi_offset 14, -4
	.loc 28 619 0
	movt	r0, #:upper16:.LC78
	movt	r1, #:upper16:.LC30
	mov	r2, #620
	ldr	r3, .L1328
	bl	_assert_fail
.LVL1147:
.L1329:
	.align	2
.L1328:
	.word	.LANCHOR4+2340
	.cfi_endproc
.LFE850:
	.size	fault_cap_fault_get_inReceivePhase.isra.158.part.159, .-fault_cap_fault_get_inReceivePhase.isra.158.part.159
	.align	2
	.type	setMRs_lookup_failure.part.165, %function
setMRs_lookup_failure.part.165:
.LFB856:
	.loc 24 36 0
	.cfi_startproc
	@ Volatile: function does not return.
	@ args = 0, pretend = 0, frame = 0
	@ frame_needed = 0, uses_anonymous_args = 0
.LVL1148:
.LBB5389:
.LBB5390:
	.loc 28 2694 0
	movw	r0, #:lower16:.LC79
	movw	r1, #:lower16:.LC30
.LBE5390:
.LBE5389:
	.loc 24 36 0
	stmfd	sp!, {r3, lr}
	.cfi_def_cfa_offset 8
	.cfi_offset 3, -8
	.cfi_offset 14, -4
.LBB5392:
.LBB5391:
	.loc 28 2694 0
	movt	r0, #:upper16:.LC79
	movt	r1, #:upper16:.LC30
	movw	r2, #2695
	ldr	r3, .L1332
	bl	_assert_fail
.LVL1149:
.L1333:
	.align	2
.L1332:
	.word	.LANCHOR4+2376
.LBE5391:
.LBE5392:
	.cfi_endproc
.LFE856:
	.size	setMRs_lookup_failure.part.165, .-setMRs_lookup_failure.part.165
	.align	2
	.type	fault_vm_fault_get_address.part.167, %function
fault_vm_fault_get_address.part.167:
.LFB858:
	.loc 28 652 0
	.cfi_startproc
	@ Volatile: function does not return.
	@ args = 0, pretend = 0, frame = 0
	@ frame_needed = 0, uses_anonymous_args = 0
	.loc 28 654 0
	movw	r0, #:lower16:.LC80
	movw	r1, #:lower16:.LC30
	.loc 28 652 0
	stmfd	sp!, {r3, lr}
	.cfi_def_cfa_offset 8
	.cfi_offset 3, -8
	.cfi_offset 14, -4
	.loc 28 654 0
	movt	r0, #:upper16:.LC80
	movt	r1, #:upper16:.LC30
	movw	r2, #655
	ldr	r3, .L1336
	bl	_assert_fail
.LVL1150:
.L1337:
	.align	2
.L1336:
	.word	.LANCHOR4+2420
	.cfi_endproc
.LFE858:
	.size	fault_vm_fault_get_address.part.167, .-fault_vm_fault_get_address.part.167
	.align	2
	.type	fault_vm_fault_get_instructionFault.isra.168.part.169, %function
fault_vm_fault_get_instructionFault.isra.168.part.169:
.LFB860:
	.loc 28 680 0
	.cfi_startproc
	@ Volatile: function does not return.
	@ args = 0, pretend = 0, frame = 0
	@ frame_needed = 0, uses_anonymous_args = 0
	.loc 28 682 0
	movw	r0, #:lower16:.LC80
	movw	r1, #:lower16:.LC30
	.loc 28 680 0
	stmfd	sp!, {r3, lr}
	.cfi_def_cfa_offset 8
	.cfi_offset 3, -8
	.cfi_offset 14, -4
	.loc 28 682 0
	movt	r0, #:upper16:.LC80
	movt	r1, #:upper16:.LC30
	movw	r2, #683
	ldr	r3, .L1340
	bl	_assert_fail
.LVL1151:
.L1341:
	.align	2
.L1340:
	.word	.LANCHOR4+2448
	.cfi_endproc
.LFE860:
	.size	fault_vm_fault_get_instructionFault.isra.168.part.169, .-fault_vm_fault_get_instructionFault.isra.168.part.169
	.align	2
	.type	fault_vm_fault_get_FSR.isra.170.part.171, %function
fault_vm_fault_get_FSR.isra.170.part.171:
.LFB862:
	.loc 28 666 0
	.cfi_startproc
	@ Volatile: function does not return.
	@ args = 0, pretend = 0, frame = 0
	@ frame_needed = 0, uses_anonymous_args = 0
	.loc 28 668 0
	movw	r0, #:lower16:.LC80
	movw	r1, #:lower16:.LC30
	.loc 28 666 0
	stmfd	sp!, {r3, lr}
	.cfi_def_cfa_offset 8
	.cfi_offset 3, -8
	.cfi_offset 14, -4
	.loc 28 668 0
	movt	r0, #:upper16:.LC80
	movt	r1, #:upper16:.LC30
	movw	r2, #669
	ldr	r3, .L1344
	bl	_assert_fail
.LVL1152:
.L1345:
	.align	2
.L1344:
	.word	.LANCHOR4+2484
	.cfi_endproc
.LFE862:
	.size	fault_vm_fault_get_FSR.isra.170.part.171, .-fault_vm_fault_get_FSR.isra.170.part.171
	.align	2
	.type	fault_unknown_syscall_get_syscallNumber.part.172, %function
fault_unknown_syscall_get_syscallNumber.part.172:
.LFB863:
	.loc 28 709 0
	.cfi_startproc
	@ Volatile: function does not return.
	@ args = 0, pretend = 0, frame = 0
	@ frame_needed = 0, uses_anonymous_args = 0
	.loc 28 711 0
	movw	r0, #:lower16:.LC81
	movw	r1, #:lower16:.LC30
	.loc 28 709 0
	stmfd	sp!, {r3, lr}
	.cfi_def_cfa_offset 8
	.cfi_offset 3, -8
	.cfi_offset 14, -4
	.loc 28 711 0
	movt	r0, #:upper16:.LC81
	movt	r1, #:upper16:.LC30
	mov	r2, #712
	ldr	r3, .L1348
	bl	_assert_fail
.LVL1153:
.L1349:
	.align	2
.L1348:
	.word	.LANCHOR4+2508
	.cfi_endproc
.LFE863:
	.size	fault_unknown_syscall_get_syscallNumber.part.172, .-fault_unknown_syscall_get_syscallNumber.part.172
	.align	2
	.type	fault_user_exception_get_number.part.173, %function
fault_user_exception_get_number.part.173:
.LFB864:
	.loc 28 741 0
	.cfi_startproc
	@ Volatile: function does not return.
	@ args = 0, pretend = 0, frame = 0
	@ frame_needed = 0, uses_anonymous_args = 0
	.loc 28 743 0
	movw	r0, #:lower16:.LC82
	movw	r1, #:lower16:.LC30
	.loc 28 741 0
	stmfd	sp!, {r3, lr}
	.cfi_def_cfa_offset 8
	.cfi_offset 3, -8
	.cfi_offset 14, -4
	.loc 28 743 0
	movt	r0, #:upper16:.LC82
	movt	r1, #:upper16:.LC30
	mov	r2, #744
	ldr	r3, .L1352
	bl	_assert_fail
.LVL1154:
.L1353:
	.align	2
.L1352:
	.word	.LANCHOR4+2548
	.cfi_endproc
.LFE864:
	.size	fault_user_exception_get_number.part.173, .-fault_user_exception_get_number.part.173
	.align	2
	.type	fault_user_exception_get_code.isra.174.part.175, %function
fault_user_exception_get_code.isra.174.part.175:
.LFB866:
	.loc 28 755 0
	.cfi_startproc
	@ Volatile: function does not return.
	@ args = 0, pretend = 0, frame = 0
	@ frame_needed = 0, uses_anonymous_args = 0
	.loc 28 757 0
	movw	r0, #:lower16:.LC82
	movw	r1, #:lower16:.LC30
	.loc 28 755 0
	stmfd	sp!, {r3, lr}
	.cfi_def_cfa_offset 8
	.cfi_offset 3, -8
	.cfi_offset 14, -4
	.loc 28 757 0
	movt	r0, #:upper16:.LC82
	movt	r1, #:upper16:.LC30
	movw	r2, #758
	ldr	r3, .L1356
	bl	_assert_fail
.LVL1155:
.L1357:
	.align	2
.L1356:
	.word	.LANCHOR4+2580
	.cfi_endproc
.LFE866:
	.size	fault_user_exception_get_code.isra.174.part.175, .-fault_user_exception_get_code.isra.174.part.175
	.text
	.align	2
	.global	setMRs_fault
	.type	setMRs_fault, %function
setMRs_fault:
.LFB467:
	.loc 24 73 0
	.cfi_startproc
	@ args = 0, pretend = 0, frame = 0
	@ frame_needed = 0, uses_anonymous_args = 0
.LVL1156:
	stmfd	sp!, {r3, lr}
	.cfi_def_cfa_offset 8
	.cfi_offset 3, -8
	.cfi_offset 14, -4
.LBB5531:
.LBB5532:
	.loc 28 566 0
	ldr	r3, [r0, #88]
	and	r3, r3, #7
.LBE5532:
.LBE5531:
	.loc 24 74 0
	sub	r3, r3, #1
	cmp	r3, #3
	ldrls	pc, [pc, r3, asl #2]
	b	.L1359
.L1361:
	.word	.L1360
	.word	.L1362
	.word	.L1363
	.word	.L1364
.L1363:
.LVL1157:
.LBB5533:
.LBB5534:
.LBB5535:
	.loc 13 21 0 discriminator 1
	ldr	r3, [r0]
.LBE5535:
.LBE5534:
	.loc 24 101 0 discriminator 1
	cmp	r2, #0
.LBB5537:
.LBB5536:
	.loc 13 21 0 discriminator 1
	str	r3, [r1, #8]
.LVL1158:
	ldr	r3, [r0, #4]
	str	r3, [r1, #12]
.LVL1159:
	ldr	r3, [r0, #8]
	str	r3, [r1, #16]
.LVL1160:
	ldr	r3, [r0, #12]
	str	r3, [r1, #20]
.LVL1161:
.LBE5536:
.LBE5537:
	.loc 24 101 0 discriminator 1
	beq	.L1396
	ldr	r3, .L1408
.LVL1162:
	add	r1, r2, #16
.LVL1163:
	add	lr, r3, #32
.LVL1164:
.L1378:
.LBB5538:
.LBB5539:
	.loc 13 27 0 discriminator 2
	ldr	ip, [r3, #4]!
.LVL1165:
	ldr	ip, [r0, ip, asl #2]
.LBE5539:
.LBE5538:
	.loc 24 102 0 discriminator 2
	cmp	r3, lr
	.loc 24 103 0 discriminator 2
	str	ip, [r1, #4]!
.LVL1166:
	.loc 24 102 0 discriminator 2
	bne	.L1378
.LVL1167:
.LBB5540:
.LBB5541:
	.loc 28 711 0
	ldr	r3, [r0, #88]
	ldr	r1, [r0, #92]
.LVL1168:
	and	r3, r3, #7
	cmp	r3, #3
	bne	.L1399
.LVL1169:
.LBE5541:
.LBE5540:
	.loc 24 107 0
	str	r1, [r2, #52]
.LVL1170:
	.loc 24 109 0
	mov	r0, #13
.LVL1171:
	ldmfd	sp!, {r3, pc}
.LVL1172:
.L1362:
.LBE5533:
.LBB5544:
.LBB5545:
.LBB5546:
	.loc 13 21 0
	ldr	r3, [r0, #68]
	str	r3, [r1, #8]
.LVL1173:
.LBE5546:
.LBE5545:
.LBE5544:
.LBB5547:
.LBB5548:
	.loc 28 654 0
	ldr	r3, [r0, #88]
.LVL1174:
	ldr	r2, [r0, #92]
.LVL1175:
	and	r3, r3, #7
	cmp	r3, #2
	bne	.L1400
.LVL1176:
.LBE5548:
.LBE5547:
.LBB5550:
.LBB5551:
.LBB5552:
	.loc 13 21 0
	str	r2, [r1, #12]
.LVL1177:
	ldr	r3, [r0, #88]
.LVL1178:
.LBE5552:
.LBE5551:
.LBE5550:
.LBB5553:
.LBB5554:
	.loc 28 682 0
	and	r2, r3, #7
.LVL1179:
	cmp	r2, #2
	bne	.L1401
.LVL1180:
	.loc 28 685 0
	ubfx	r3, r3, #17, #1
.LVL1181:
.LBE5554:
.LBE5553:
.LBB5556:
.LBB5557:
.LBB5558:
	.loc 13 21 0
	str	r3, [r1, #16]
.LVL1182:
	ldr	r3, [r0, #88]
.LVL1183:
.LBE5558:
.LBE5557:
.LBE5556:
.LBB5559:
.LBB5560:
	.loc 28 668 0
	and	r2, r3, #7
	cmp	r2, #2
	bne	.L1402
.LVL1184:
	.loc 28 671 0
	mov	r3, r3, lsr #18
.LVL1185:
.LBE5560:
.LBE5559:
	.loc 24 90 0
	mov	r0, #4
.LVL1186:
.LBB5562:
.LBB5563:
.LBB5564:
	.loc 13 21 0
	str	r3, [r1, #20]
.LVL1187:
.LBE5564:
.LBE5563:
.LBE5562:
	.loc 24 90 0
	ldmfd	sp!, {r3, pc}
.LVL1188:
.L1360:
.LBB5565:
.LBB5566:
.LBB5567:
	.loc 13 21 0
	ldr	r3, [r0, #68]
	str	r3, [r1, #8]
.LVL1189:
.LBE5567:
.LBE5566:
.LBE5565:
.LBB5568:
.LBB5569:
	.loc 28 605 0
	ldr	r3, [r0, #88]
.LVL1190:
	ldr	ip, [r0, #92]
.LVL1191:
	and	r3, r3, #7
	cmp	r3, #1
	bne	.L1403
.LVL1192:
.LBE5569:
.LBE5568:
.LBB5571:
.LBB5572:
.LBB5573:
	.loc 13 21 0
	str	ip, [r1, #12]
.LVL1193:
	ldr	r3, [r0, #88]
.LVL1194:
.LBE5573:
.LBE5572:
.LBE5571:
.LBB5574:
.LBB5575:
	.loc 28 619 0
	and	ip, r3, #7
.LVL1195:
	cmp	ip, #1
	bne	.L1404
.LVL1196:
	.loc 28 622 0
	mov	r3, r3, lsr #31
.LVL1197:
.LBE5575:
.LBE5574:
.LBB5577:
.LBB5578:
.LBB5579:
	.loc 13 21 0
	str	r3, [r1, #16]
.LVL1198:
	ldr	ip, [r0, #96]
.LVL1199:
	ldr	lr, [r0, #100]
.LVL1200:
.LBE5579:
.LBE5578:
.LBE5577:
.LBB5580:
.LBB5581:
.LBB5582:
.LBB5583:
	.loc 28 2574 0
	and	r3, ip, #3
.LVL1201:
.LBE5583:
.LBE5582:
	.loc 24 44 0
	cmp	r3, #2
	.loc 24 42 0
	add	r0, r3, #1
.LVL1202:
.LBB5584:
.LBB5585:
.LBB5586:
	.loc 13 21 0
	str	r0, [r1, #20]
.LBE5586:
.LBE5585:
.LBE5584:
	.loc 24 44 0
	beq	.L1372
	cmp	r3, #3
	beq	.L1373
	cmp	r3, #1
	beq	.L1405
.LVL1203:
.L1396:
	.loc 24 46 0
	mov	r0, #4
.LBE5581:
.LBE5580:
	.loc 24 133 0
	ldmfd	sp!, {r3, pc}
.LVL1204:
.L1364:
.LBB5628:
.LBB5629:
.LBB5630:
	.loc 13 21 0 discriminator 1
	ldr	r3, [r0, #68]
	str	r3, [r1, #8]
.LVL1205:
	ldr	r3, [r0, #52]
	str	r3, [r1, #12]
.LVL1206:
	ldr	r3, [r0, #64]
	str	r3, [r1, #16]
.LVL1207:
.LBE5630:
.LBE5629:
.LBB5631:
.LBB5632:
	.loc 28 743 0 discriminator 1
	ldr	r3, [r0, #88]
.LVL1208:
	ldr	ip, [r0, #92]
.LVL1209:
	and	r3, r3, #7
	cmp	r3, #4
	bne	.L1406
.LVL1210:
.LBE5632:
.LBE5631:
.LBB5634:
.LBB5635:
.LBB5636:
	.loc 13 21 0
	str	ip, [r1, #20]
.LVL1211:
	ldr	r3, [r0, #88]
.LVL1212:
.LBE5636:
.LBE5635:
.LBE5634:
.LBB5637:
.LBB5638:
	.loc 28 757 0
	and	r1, r3, #7
.LVL1213:
	cmp	r1, #4
	bne	.L1407
.LVL1214:
.LBE5638:
.LBE5637:
.LBB5641:
.LBB5642:
.LBB5643:
	.loc 24 23 0
	cmp	r2, #0
	beq	.L1396
.LBE5643:
.LBE5642:
.LBE5641:
.LBB5646:
.LBB5639:
	.loc 28 760 0
	mov	r3, r3, lsr #3
.LVL1215:
.LBE5639:
.LBE5646:
.LBB5647:
.LBB5645:
.LBB5644:
	.loc 24 25 0
	mov	r0, #5
.LVL1216:
	.loc 24 24 0
	str	r3, [r2, #20]
.LVL1217:
	ldmfd	sp!, {r3, pc}
.LVL1218:
.L1359:
.LBE5644:
.LBE5645:
.LBE5647:
.LBE5628:
	.loc 24 131 0
	movw	r0, #:lower16:.LC54
.LVL1219:
	movw	r1, #:lower16:.LC83
.LVL1220:
	movt	r0, #:upper16:.LC54
	movt	r1, #:upper16:.LC83
	mov	r2, #131
.LVL1221:
	ldr	r3, .L1408+4
	bl	_fail
.LVL1222:
.L1400:
.LBB5650:
.LBB5549:
	bl	fault_vm_fault_get_address.part.167
.LVL1223:
.L1403:
.LBE5549:
.LBE5650:
.LBB5651:
.LBB5570:
	bl	fault_cap_fault_get_address.part.157
.LVL1224:
.L1406:
.LBE5570:
.LBE5651:
.LBB5652:
.LBB5648:
.LBB5633:
	bl	fault_user_exception_get_number.part.173
.LVL1225:
.L1372:
.LBE5633:
.LBE5648:
.LBE5652:
.LBB5653:
.LBB5627:
.LBB5587:
.LBB5588:
.LBB5589:
	.loc 24 23 0
	cmp	r2, #0
	beq	.L1396
.LBE5589:
.LBE5588:
.LBE5587:
.LBB5592:
.LBB5593:
	.loc 28 2662 0
	ubfx	r3, ip, #2, #6
.LBE5593:
.LBE5592:
.LBB5594:
.LBB5595:
	.loc 28 2648 0
	ubfx	ip, ip, #8, #6
.LVL1226:
.LBE5595:
.LBE5594:
.LBB5596:
.LBB5591:
.LBB5590:
	.loc 24 24 0
	str	r3, [r2, #20]
.LVL1227:
.LBE5590:
.LBE5591:
.LBE5596:
.LBB5597:
.LBB5598:
.LBB5599:
	.loc 24 25 0
	mov	r0, #6
.LVL1228:
	.loc 24 24 0
	str	ip, [r2, #24]
	ldmfd	sp!, {r3, pc}
.LVL1229:
.L1373:
.LBE5599:
.LBE5598:
.LBE5597:
.LBB5600:
.LBB5601:
.LBB5602:
	.loc 24 23 0
	cmp	r2, #0
	beq	.L1396
.LBE5602:
.LBE5601:
.LBE5600:
.LBB5605:
.LBB5606:
	.loc 28 2711 0
	ubfx	r3, ip, #8, #6
.LBE5606:
.LBE5605:
.LBB5607:
.LBB5608:
	.loc 28 2725 0
	ubfx	ip, ip, #2, #6
.LVL1230:
.LBE5608:
.LBE5607:
.LBB5609:
.LBB5610:
.LBB5611:
	.loc 24 24 0
	str	lr, [r2, #24]
.LVL1231:
.LBE5611:
.LBE5610:
.LBE5609:
.LBB5612:
.LBB5613:
.LBB5614:
	.loc 24 25 0
	mov	r0, #7
.LVL1232:
.LBE5614:
.LBE5613:
.LBE5612:
.LBB5617:
.LBB5604:
.LBB5603:
	.loc 24 24 0
	str	r3, [r2, #20]
.LVL1233:
.LBE5603:
.LBE5604:
.LBE5617:
.LBB5618:
.LBB5616:
.LBB5615:
	str	ip, [r2, #28]
	ldmfd	sp!, {r3, pc}
.LVL1234:
.L1405:
.LBE5615:
.LBE5616:
.LBE5618:
.LBB5619:
.LBB5620:
.LBB5621:
	.loc 24 23 0
	cmp	r2, #0
	beq	.L1396
.LBE5621:
.LBE5620:
.LBE5619:
.LBB5624:
.LBB5625:
	.loc 28 2614 0
	ubfx	ip, ip, #2, #6
.LVL1235:
.LBE5625:
.LBE5624:
.LBB5626:
.LBB5623:
.LBB5622:
	.loc 24 25 0
	mov	r0, #5
.LVL1236:
	.loc 24 24 0
	str	ip, [r2, #20]
.LVL1237:
	ldmfd	sp!, {r3, pc}
.LVL1238:
.L1401:
.LBE5622:
.LBE5623:
.LBE5626:
.LBE5627:
.LBE5653:
.LBB5654:
.LBB5555:
	bl	fault_vm_fault_get_instructionFault.isra.168.part.169
.LVL1239:
.L1402:
.LBE5555:
.LBE5654:
.LBB5655:
.LBB5561:
	bl	fault_vm_fault_get_FSR.isra.170.part.171
.LVL1240:
.L1404:
.LBE5561:
.LBE5655:
.LBB5656:
.LBB5576:
	bl	fault_cap_fault_get_inReceivePhase.isra.158.part.159
.LVL1241:
.L1407:
.LBE5576:
.LBE5656:
.LBB5657:
.LBB5649:
.LBB5640:
	bl	fault_user_exception_get_code.isra.174.part.175
.LVL1242:
.L1399:
.LBE5640:
.LBE5649:
.LBE5657:
.LBB5658:
.LBB5543:
.LBB5542:
	bl	fault_unknown_syscall_get_syscallNumber.part.172
.LVL1243:
.L1409:
	.align	2
.L1408:
	.word	.LANCHOR4+1388
	.word	.LANCHOR4+2612
.LBE5542:
.LBE5543:
.LBE5658:
	.cfi_endproc
.LFE467:
	.size	setMRs_fault, .-setMRs_fault
	.section	.text.unlikely
	.align	2
	.type	cap_cnode_cap_get_capCNodeGuardSize.part.176, %function
cap_cnode_cap_get_capCNodeGuardSize.part.176:
.LFB867:
	.loc 28 1509 0
	.cfi_startproc
	@ Volatile: function does not return.
	@ args = 0, pretend = 0, frame = 0
	@ frame_needed = 0, uses_anonymous_args = 0
	.loc 28 1511 0
	movw	r0, #:lower16:.LC38
	movw	r1, #:lower16:.LC30
	.loc 28 1509 0
	stmfd	sp!, {r3, lr}
	.cfi_def_cfa_offset 8
	.cfi_offset 3, -8
	.cfi_offset 14, -4
	.loc 28 1511 0
	movt	r0, #:upper16:.LC38
	movt	r1, #:upper16:.LC30
	movw	r2, #1512
	ldr	r3, .L1412
	bl	_assert_fail
.LVL1244:
.L1413:
	.align	2
.L1412:
	.word	.LANCHOR4+2628
	.cfi_endproc
.LFE867:
	.size	cap_cnode_cap_get_capCNodeGuardSize.part.176, .-cap_cnode_cap_get_capCNodeGuardSize.part.176
	.align	2
	.type	cap_cnode_cap_get_capCNodeGuard.part.177, %function
cap_cnode_cap_get_capCNodeGuard.part.177:
.LFB868:
	.loc 28 1549 0
	.cfi_startproc
	@ Volatile: function does not return.
	@ args = 0, pretend = 0, frame = 0
	@ frame_needed = 0, uses_anonymous_args = 0
	.loc 28 1551 0
	movw	r0, #:lower16:.LC38
	movw	r1, #:lower16:.LC30
	.loc 28 1549 0
	stmfd	sp!, {r3, lr}
	.cfi_def_cfa_offset 8
	.cfi_offset 3, -8
	.cfi_offset 14, -4
	.loc 28 1551 0
	movt	r0, #:upper16:.LC38
	movt	r1, #:upper16:.LC30
	mov	r2, #1552
	ldr	r3, .L1416
	bl	_assert_fail
.LVL1245:
.L1417:
	.align	2
.L1416:
	.word	.LANCHOR4+2664
	.cfi_endproc
.LFE868:
	.size	cap_cnode_cap_get_capCNodeGuard.part.177, .-cap_cnode_cap_get_capCNodeGuard.part.177
	.text
	.align	2
	.type	cap_endpoint_cap_get_capCanSend.part.178, %function
cap_endpoint_cap_get_capCanSend.part.178:
.LFB869:
	.loc 28 1249 0
	.cfi_startproc
	@ Volatile: function does not return.
	@ args = 0, pretend = 0, frame = 0
	@ frame_needed = 0, uses_anonymous_args = 0
	.loc 28 1251 0
	movw	r0, #:lower16:.LC32
	movw	r1, #:lower16:.LC30
	.loc 28 1249 0
	stmfd	sp!, {r3, lr}
	.cfi_def_cfa_offset 8
	.cfi_offset 3, -8
	.cfi_offset 14, -4
	.loc 28 1251 0
	movt	r0, #:upper16:.LC32
	movt	r1, #:upper16:.LC30
	movw	r2, #1252
	ldr	r3, .L1420
	bl	_assert_fail
.LVL1246:
.L1421:
	.align	2
.L1420:
	.word	.LANCHOR4+2696
	.cfi_endproc
.LFE869:
	.size	cap_endpoint_cap_get_capCanSend.part.178, .-cap_endpoint_cap_get_capCanSend.part.178
	.align	2
	.type	cap_endpoint_cap_get_capCanGrant.part.179, %function
cap_endpoint_cap_get_capCanGrant.part.179:
.LFB870:
	.loc 28 1197 0
	.cfi_startproc
	@ Volatile: function does not return.
	@ args = 0, pretend = 0, frame = 0
	@ frame_needed = 0, uses_anonymous_args = 0
	.loc 28 1199 0
	movw	r0, #:lower16:.LC32
	movw	r1, #:lower16:.LC30
	.loc 28 1197 0
	stmfd	sp!, {r3, lr}
	.cfi_def_cfa_offset 8
	.cfi_offset 3, -8
	.cfi_offset 14, -4
	.loc 28 1199 0
	movt	r0, #:upper16:.LC32
	movt	r1, #:upper16:.LC30
	mov	r2, #1200
	ldr	r3, .L1424
	bl	_assert_fail
.LVL1247:
.L1425:
	.align	2
.L1424:
	.word	.LANCHOR4+2728
	.cfi_endproc
.LFE870:
	.size	cap_endpoint_cap_get_capCanGrant.part.179, .-cap_endpoint_cap_get_capCanGrant.part.179
	.align	2
	.type	cap_endpoint_cap_get_capEPBadge.isra.180.part.181, %function
cap_endpoint_cap_get_capEPBadge.isra.180.part.181:
.LFB872:
	.loc 28 1275 0
	.cfi_startproc
	@ Volatile: function does not return.
	@ args = 0, pretend = 0, frame = 0
	@ frame_needed = 0, uses_anonymous_args = 0
	.loc 28 1277 0
	movw	r0, #:lower16:.LC32
	movw	r1, #:lower16:.LC30
	.loc 28 1275 0
	stmfd	sp!, {r3, lr}
	.cfi_def_cfa_offset 8
	.cfi_offset 3, -8
	.cfi_offset 14, -4
	.loc 28 1277 0
	movt	r0, #:upper16:.LC32
	movt	r1, #:upper16:.LC30
	movw	r2, #1278
	ldr	r3, .L1428
	bl	_assert_fail
.LVL1248:
.L1429:
	.align	2
.L1428:
	.word	.LANCHOR4+2764
	.cfi_endproc
.LFE872:
	.size	cap_endpoint_cap_get_capEPBadge.isra.180.part.181, .-cap_endpoint_cap_get_capEPBadge.isra.180.part.181
	.section	.vectors.fastpath_call,"ax",%progbits
	.align	2
	.global	fastpath_call
	.type	fastpath_call, %function
fastpath_call:
.LFB488:
	.file 44 "/home/neelesh/research/seL4-tutorials-manifest/kernel/src/fastpath/fastpath.c"
	.loc 44 18 0
	.cfi_startproc
	@ Volatile: function does not return.
	@ args = 0, pretend = 0, frame = 16
	@ frame_needed = 0, uses_anonymous_args = 0
.LVL1249:
	.loc 44 34 0
	movw	r5, #:lower16:ksCurThread
	.loc 44 18 0
	stmfd	sp!, {r7, lr}
	.cfi_def_cfa_offset 8
	.cfi_offset 7, -8
	.cfi_offset 14, -4
	.loc 44 34 0
	movt	r5, #:upper16:ksCurThread
.LBB5735:
.LBB5736:
	.file 45 "/home/neelesh/research/seL4-tutorials-manifest/kernel/include/arch/arm/arch/fastpath/fastpath.h"
	.loc 45 88 0
	ubfx	r3, r1, #0, #9
	.loc 45 89 0
	add	r3, r3, #3
.LBE5736:
.LBE5735:
	.loc 44 18 0
	sub	sp, sp, #16
	.cfi_def_cfa_offset 24
	.loc 44 34 0
	ldr	lr, [r5]
	.loc 44 38 0
	bics	r3, r3, #7
	.loc 44 18 0
	mov	r6, r1
.LVL1250:
.LBB5737:
.LBB5738:
	.loc 28 566 0
	ldr	r3, [lr, #88]
	and	r3, r3, #7
.LVL1251:
.LBE5738:
.LBE5737:
	.loc 44 38 0
	bne	.L1432
	.loc 44 38 0 is_stmt 0 discriminator 1
	cmp	r3, #0
	bne	.L1432
	.loc 44 44 0 is_stmt 1
	bic	ip, lr, #508
	mov	r7, r0
	bic	ip, ip, #3
	add	r8, sp, #8
	ldmia	ip, {r0, r1}
.LVL1252:
.LBB5739:
.LBB5740:
.LBB5741:
.LBB5742:
	.loc 28 1043 0
	and	r2, r0, #15
	mov	r4, r0
.LVL1253:
.LBE5742:
.LBE5741:
	.file 46 "/home/neelesh/research/seL4-tutorials-manifest/kernel/include/fastpath/fastpath.h"
	.loc 46 25 0
	cmp	r2, #10
	stmia	r8, {r0, r1}
	bne	.L1432
.LVL1254:
.L1439:
	ldr	r2, [sp, #12]
.LVL1255:
.LBB5743:
.LBB5744:
	.loc 28 1514 0
	ubfx	r1, r2, #23, #5
.LVL1256:
.LBE5744:
.LBE5743:
.LBB5745:
.LBB5746:
	.loc 28 1540 0
	ubfx	r0, r2, #18, #5
.LVL1257:
.LBE5746:
.LBE5745:
	.loc 46 40 0
	cmp	r1, #0
.LBB5747:
.LBB5748:
	.loc 28 1554 0
	ubfx	r9, r2, #0, #18
.LBE5748:
.LBE5747:
	.loc 46 32 0
	mov	r2, r7, asl r3
.LVL1258:
	.loc 46 40 0
	beq	.L1437
	rsb	r10, r1, #32
	cmp	r9, r2, lsr r10
	bne	.L1432
.L1437:
.LVL1259:
	.loc 46 44 0
	mov	r2, r2, asl r1
.LVL1260:
	rsb	r9, r0, #32
.LVL1261:
.LBB5749:
.LBB5750:
	.loc 28 1580 0
	bic	r4, r4, #31
.LVL1262:
.LBE5750:
.LBE5749:
	.loc 46 44 0
	mov	r2, r2, lsr r9
.LVL1263:
	.loc 46 48 0
	add	r1, r0, r1
.LVL1264:
	add	r3, r3, r1
.LVL1265:
	.loc 46 45 0
	add	r2, r4, r2, asl #4
.LVL1266:
	.loc 46 50 0
	cmp	r3, #31
	.loc 46 47 0
	ldmia	r2, {r0, r1}
.LVL1267:
	stmia	r8, {r0, r1}
.LVL1268:
	mov	r4, r0
.LVL1269:
	.loc 46 50 0
	bls	.L1467
	.loc 46 52 0
	cmp	r3, #32
	bne	.L1432
	and	r2, r0, #15
.LVL1270:
.L1441:
.LBE5740:
.LBE5739:
	.loc 44 47 0
	cmp	r2, #4
.LBB5755:
.LBB5753:
	.loc 46 58 0
	ldr	r3, [sp, #12]
.LVL1271:
.LBE5753:
.LBE5755:
	.loc 44 47 0
	bne	.L1432
.LVL1272:
	tst	r3, #1
	beq	.L1432
.LVL1273:
.LBB5756:
.LBB5757:
	.loc 28 1188 0
	bic	r9, r3, #15
.LVL1274:
	ldmia	r9, {r1, r2}
.LVL1275:
.LBE5757:
.LBE5756:
.LBB5758:
.LBB5759:
	.loc 28 403 0
	and	r1, r1, #3
.LVL1276:
.LBE5759:
.LBE5758:
	.loc 44 60 0
	cmp	r1, #2
	bne	.L1432
	.loc 44 65 0
	bic	r7, r2, #508
.LVL1277:
	bic	r7, r7, #3
	ldr	r0, [r7, #16]
.LVL1278:
.LBB5760:
.LBB5761:
	.loc 28 2162 0
	and	r1, r0, #15
.LVL1279:
	cmp	r1, #9
	beq	.L1442
	bl	cap_page_directory_cap_get_capPDBasePtr.isra.93.part.94
.LVL1280:
.L1442:
.LBE5761:
.LBE5760:
.LBB5764:
.LBB5765:
	.loc 45 75 0
	and	r1, r0, #31
.LBE5765:
.LBE5764:
.LBB5766:
.LBB5762:
	.loc 28 2165 0
	bic	r0, r0, #16320
.LVL1281:
.LBE5762:
.LBE5766:
	.loc 44 75 0
	cmp	r1, #25
.LBB5767:
.LBB5763:
	.loc 28 2165 0
	bic	r0, r0, #63
.LVL1282:
.LBE5763:
.LBE5767:
	.loc 44 75 0
	bne	.L1432
.LBB5768:
.LBB5769:
	.loc 28 365 0
	bic	r8, r2, #15
.LBE5769:
.LBE5768:
	.loc 44 85 0
	ldr	r2, [lr, #108]
.LVL1283:
	ldr	r10, [r8, #108]
	.loc 44 81 0
	add	r1, r0, #12288
	ldr	r1, [r1, #4032]
.LVL1284:
	.loc 44 85 0
	cmp	r10, r2
	bcc	.L1432
.LVL1285:
	.loc 44 90 0
	tst	r3, #4
	bne	.L1468
.LVL1286:
.L1432:
	.loc 44 40 0
	mvn	r0, #0
	bl	slowpath
.LVL1287:
.L1467:
.LBB5770:
.LBB5754:
.LBB5751:
.LBB5752:
	.loc 28 1043 0
	and	r2, r0, #15
.LVL1288:
.LBE5752:
.LBE5751:
	.loc 46 50 0
	cmp	r2, #10
	bne	.L1441
	b	.L1439
.LVL1289:
.L1468:
.LBE5754:
.LBE5770:
.LBB5771:
.LBB5772:
	.loc 28 89 0 discriminator 1
	ldr	r3, [r8, #80]
.LVL1290:
.LBE5772:
.LBE5771:
	.loc 44 90 0 discriminator 1
	tst	r3, #1
	bne	.L1432
.LVL1291:
.LBB5773:
.LBB5774:
	.loc 28 827 0
	tst	r1, #3
	bne	.L1469
.LVL1292:
.LBE5774:
.LBE5773:
	.loc 44 96 0
	tst	r1, #8388608
	beq	.L1432
	.loc 44 118 0
	ldr	r3, [r8, #132]
.LVL1293:
	.loc 44 132 0
	add	ip, ip, #32
.LVL1294:
.LBB5776:
.LBB5777:
	.loc 46 64 0
	mov	r10, #5
.LBE5777:
.LBE5776:
	.loc 44 119 0
	cmp	r3, #0
.LBB5779:
.LBB5780:
	.loc 46 93 0
	str	r3, [r9, #4]
.LVL1295:
.LBE5780:
.LBE5779:
	.loc 44 120 0
	movne	r2, #0
.LBB5781:
.LBB5782:
	.loc 46 87 0
	streq	r3, [r9]
.LVL1296:
.LBE5782:
.LBE5781:
	.loc 44 120 0
	strne	r2, [r3, #136]
.LVL1297:
	.loc 44 135 0
	add	r3, r7, #48
.LVL1298:
.LBB5783:
.LBB5784:
	.loc 46 79 0
	orr	r2, lr, #8
.LBE5784:
.LBE5783:
.LBB5786:
.LBB5787:
	.loc 45 63 0
	orr	r9, r3, #3
.LVL1299:
.LBE5787:
.LBE5786:
.LBB5789:
.LBB5778:
	.loc 46 64 0
	str	r10, [lr, #72]
.LBE5778:
.LBE5789:
.LBB5790:
.LBB5791:
	.loc 45 99 0
	mov	r3, #0
.LVL1300:
.LBE5791:
.LBE5790:
.LBB5797:
.LBB5785:
	.loc 46 79 0
	str	r2, [r7, #48]
.LVL1301:
	add	lr, lr, #4
.LVL1302:
.LBE5785:
.LBE5797:
.LBB5798:
.LBB5799:
	.loc 45 69 0
	str	ip, [r7, #56]
	add	r2, r8, #4
.LVL1303:
.LBE5799:
.LBE5798:
.LBB5800:
.LBB5788:
	.loc 45 63 0
	str	r9, [ip, #12]
.LVL1304:
	and	r7, r6, #127
.LVL1305:
	b	.L1446
.LVL1306:
.L1447:
.LBE5788:
.LBE5800:
.LBB5801:
.LBB5796:
.LBB5792:
.LBB5793:
	.loc 13 27 0
	ldr	ip, [lr, #4]!
.LVL1307:
.LBE5793:
.LBE5792:
	.loc 45 99 0
	add	r3, r3, #1
.LVL1308:
.LBB5794:
.LBB5795:
	.loc 13 21 0
	str	ip, [r2, #4]!
.LVL1309:
.L1446:
.LBE5795:
.LBE5794:
	.loc 45 99 0
	cmp	r3, r7
	bcc	.L1447
.LVL1310:
.LBE5796:
.LBE5801:
.LBB5802:
.LBB5803:
	.loc 46 64 0
	mov	r3, #1
.LVL1311:
.LBE5803:
.LBE5802:
.LBB5805:
.LBB5806:
	.loc 45 45 0
	mov	r1, r1, lsr #24
.LVL1312:
.LBE5806:
.LBE5805:
.LBB5812:
.LBB5804:
	.loc 46 64 0
	str	r3, [r8, #72]
.LVL1313:
.LBE5804:
.LBE5812:
.LBB5813:
.LBB5811:
	.loc 45 45 0
	bl	armv_contextSwitch_HWASID
.LVL1314:
	.loc 45 47 0
	ldr	r1, [r8, #120]
	movw	r2, #:lower16:.LANCHOR2
	movt	r2, #:upper16:.LANCHOR2
.LBB5807:
.LBB5808:
	.loc 45 31 0
	mov	r3, #0
.LBE5808:
.LBE5807:
	.loc 45 48 0
	str	r8, [r5]
.LVL1315:
	.loc 45 47 0
	str	r1, [r2, #16]
.LBB5810:
.LBB5809:
	.loc 45 31 0
	add	r2, sp, #4
@ 31 "/home/neelesh/research/seL4-tutorials-manifest/kernel/include/arch/arm/arch/fastpath/fastpath.h" 1
	strex r3, r2, [r2]
@ 0 "" 2
.LVL1316:
.LBE5809:
.LBE5810:
.LBE5811:
.LBE5813:
	.loc 44 151 0
	mov	r0, r4, lsr #4
	bic	r1, r6, #3584
.LVL1317:
	mov	r2, r8
	bl	fastpath_restore
.LVL1318:
.L1469:
.LBB5814:
.LBB5775:
	bl	pde_pde_invalid_get_stored_asid_valid.part.125
.LVL1319:
.LBE5775:
.LBE5814:
	.cfi_endproc
.LFE488:
	.size	fastpath_call, .-fastpath_call
	.section	.text.unlikely
	.align	2
	.type	mdb_node_new.part.183, %function
mdb_node_new.part.183:
.LFB874:
	.loc 28 425 0
	.cfi_startproc
	@ Volatile: function does not return.
	@ args = 0, pretend = 0, frame = 0
	@ frame_needed = 0, uses_anonymous_args = 0
.LVL1320:
	.loc 28 432 0
	movw	r0, #:lower16:.LC84
	movw	r1, #:lower16:.LC30
	.loc 28 425 0
	stmfd	sp!, {r3, lr}
	.cfi_def_cfa_offset 8
	.cfi_offset 3, -8
	.cfi_offset 14, -4
	.loc 28 432 0
	movt	r0, #:upper16:.LC84
	movt	r1, #:upper16:.LC30
	mov	r2, #432
	ldr	r3, .L1472
	bl	_assert_fail
.LVL1321:
.L1473:
	.align	2
.L1472:
	.word	.LANCHOR4+2796
	.cfi_endproc
.LFE874:
	.size	mdb_node_new.part.183, .-mdb_node_new.part.183
	.section	.vectors.fastpath_reply_recv,"ax",%progbits
	.align	2
	.global	fastpath_reply_recv
	.type	fastpath_reply_recv, %function
fastpath_reply_recv:
.LFB489:
	.loc 44 159 0
	.cfi_startproc
	@ Volatile: function does not return.
	@ args = 0, pretend = 0, frame = 16
	@ frame_needed = 0, uses_anonymous_args = 0
.LVL1322:
	.loc 44 178 0
	movw	r4, #:lower16:ksCurThread
.LBB5899:
.LBB5900:
	.loc 45 88 0
	ubfx	r3, r1, #0, #9
.LBE5900:
.LBE5899:
	.loc 44 178 0
	movt	r4, #:upper16:ksCurThread
.LBB5902:
.LBB5901:
	.loc 45 89 0
	add	r3, r3, #3
.LBE5901:
.LBE5902:
	.loc 44 178 0
	ldr	r5, [r4]
	.loc 44 182 0
	bics	r3, r3, #7
	.loc 44 159 0
	stmfd	sp!, {r7, fp, lr}
	.cfi_def_cfa_offset 12
	.cfi_offset 7, -12
	.cfi_offset 11, -8
	.cfi_offset 14, -4
	mov	r6, r1
.LVL1323:
	sub	sp, sp, #20
	.cfi_def_cfa_offset 32
.LBB5903:
.LBB5904:
	.loc 28 566 0
	ldr	r3, [r5, #88]
	and	r3, r3, #7
.LVL1324:
.LBE5904:
.LBE5903:
	.loc 44 182 0
	bne	.L1476
	.loc 44 182 0 is_stmt 0 discriminator 1
	cmp	r3, #0
	bne	.L1476
	.loc 44 188 0 is_stmt 1
	bic	lr, r5, #508
	mov	r7, r0
	bic	lr, lr, #3
	add	r8, sp, #8
	ldmia	lr, {r0, r1}
.LVL1325:
.LBB5905:
.LBB5906:
.LBB5907:
.LBB5908:
	.loc 28 1043 0
	and	r2, r0, #15
	mov	ip, r0
.LBE5908:
.LBE5907:
	.loc 46 25 0
	cmp	r2, #10
	stmia	r8, {r0, r1}
.LVL1326:
	bne	.L1476
.LVL1327:
.L1483:
	ldr	r2, [sp, #12]
.LVL1328:
.LBB5909:
.LBB5910:
	.loc 28 1514 0
	ubfx	r1, r2, #23, #5
.LVL1329:
.LBE5910:
.LBE5909:
.LBB5911:
.LBB5912:
	.loc 28 1540 0
	ubfx	r0, r2, #18, #5
.LVL1330:
.LBE5912:
.LBE5911:
	.loc 46 40 0
	cmp	r1, #0
.LBB5913:
.LBB5914:
	.loc 28 1554 0
	ubfx	r9, r2, #0, #18
.LBE5914:
.LBE5913:
	.loc 46 32 0
	mov	r2, r7, asl r3
.LVL1331:
	.loc 46 40 0
	beq	.L1481
	rsb	r10, r1, #32
	cmp	r9, r2, lsr r10
	bne	.L1476
.L1481:
.LVL1332:
	.loc 46 44 0
	mov	r2, r2, asl r1
.LVL1333:
	rsb	r9, r0, #32
.LVL1334:
.LBB5915:
.LBB5916:
	.loc 28 1580 0
	bic	ip, ip, #31
.LBE5916:
.LBE5915:
	.loc 46 44 0
	mov	r2, r2, lsr r9
.LVL1335:
	.loc 46 48 0
	add	r1, r0, r1
.LVL1336:
	add	r3, r3, r1
.LVL1337:
	.loc 46 45 0
	add	r2, ip, r2, asl #4
.LVL1338:
	.loc 46 50 0
	cmp	r3, #31
	.loc 46 47 0
	ldmia	r2, {r0, r1}
.LVL1339:
	stmia	r8, {r0, r1}
.LVL1340:
	mov	ip, r0
.LVL1341:
	.loc 46 50 0
	bls	.L1519
	.loc 46 52 0
	cmp	r3, #32
	bne	.L1476
	and	r2, r0, #15
.LVL1342:
.L1485:
.LBE5906:
.LBE5905:
	.loc 44 192 0
	cmp	r2, #4
.LBB5921:
.LBB5919:
	.loc 46 58 0
	ldr	ip, [sp, #12]
.LVL1343:
.LBE5919:
.LBE5921:
	.loc 44 192 0
	bne	.L1476
.LVL1344:
	tst	ip, #2
	beq	.L1476
	.loc 44 198 0
	ldr	r3, [r5, #84]
.LVL1345:
	cmp	r3, #0
	beq	.L1486
.LVL1346:
.LBB5922:
.LBB5923:
	.loc 28 257 0 discriminator 1
	ldr	r3, [r3]
.LVL1347:
	and	r3, r3, #3
.LVL1348:
.LBE5923:
.LBE5922:
	.loc 44 198 0 discriminator 1
	cmp	r3, #2
	beq	.L1476
.LVL1349:
.L1486:
.LBB5924:
.LBB5925:
	.loc 28 1188 0
	bic	r7, ip, #15
.LVL1350:
.LBE5925:
.LBE5924:
.LBB5926:
.LBB5927:
	.loc 28 403 0
	ldr	r3, [r7]
	and	r3, r3, #3
.LVL1351:
.LBE5927:
.LBE5926:
	.loc 44 207 0
	cmp	r3, #1
	beq	.L1476
	.loc 44 213 0
	ldr	r3, [lr, #48]
.LVL1352:
	.loc 44 212 0
	add	r9, lr, #48
.LVL1353:
.LBB5928:
.LBB5929:
	.loc 45 109 0
	and	r2, r3, #31
.LBE5929:
.LBE5928:
	.loc 44 214 0
	cmp	r2, #8
	bne	.L1476
.LVL1354:
.LBB5930:
.LBB5931:
	.loc 28 1457 0
	and	r2, r3, #15
	cmp	r2, #8
	beq	.L1487
	bl	cap_reply_cap_get_capTCBPtr.isra.65.part.66
.LVL1355:
.L1487:
	.loc 28 1460 0
	bic	r8, r3, #31
.LVL1356:
.LBE5931:
.LBE5930:
.LBB5932:
.LBB5933:
	.loc 28 566 0
	ldr	r2, [r8, #88]
.LBE5933:
.LBE5932:
	.loc 44 224 0
	tst	r2, #7
	beq	.L1520
.LVL1357:
.L1476:
	.loc 44 184 0
	mvn	r0, #1
	bl	slowpath
.LVL1358:
.L1519:
.LBB5934:
.LBB5920:
.LBB5917:
.LBB5918:
	.loc 28 1043 0
	and	r2, r0, #15
.LVL1359:
.LBE5918:
.LBE5917:
	.loc 46 50 0
	cmp	r2, #10
	bne	.L1485
	b	.L1483
.LVL1360:
.L1520:
.LBE5920:
.LBE5934:
	.loc 44 229 0
	bic	r3, r3, #508
.LVL1361:
	bic	r3, r3, #3
	ldr	r0, [r3, #16]
.LVL1362:
.LBB5935:
.LBB5936:
	.loc 28 2162 0
	and	r3, r0, #15
	cmp	r3, #9
	beq	.L1488
	bl	cap_page_directory_cap_get_capPDBasePtr.isra.93.part.94
.LVL1363:
.L1488:
.LBE5936:
.LBE5935:
.LBB5939:
.LBB5940:
	.loc 45 75 0
	and	r3, r0, #31
.LBE5940:
.LBE5939:
.LBB5941:
.LBB5937:
	.loc 28 2165 0
	bic	r0, r0, #16320
.LVL1364:
.LBE5937:
.LBE5941:
	.loc 44 239 0
	cmp	r3, #25
.LBB5942:
.LBB5938:
	.loc 28 2165 0
	bic	r0, r0, #63
.LVL1365:
.LBE5938:
.LBE5942:
	.loc 44 239 0
	bne	.L1476
	.loc 44 249 0
	ldr	r10, [r8, #108]
	.loc 44 245 0
	add	r3, r0, #12288
	.loc 44 249 0
	ldr	r2, [r5, #108]
	.loc 44 245 0
	ldr	r1, [r3, #4032]
.LVL1366:
	.loc 44 249 0
	cmp	r10, r2
	bcc	.L1476
.LVL1367:
.LBB5943:
.LBB5944:
	.loc 28 827 0
	tst	r1, #3
	bne	.L1521
.LVL1368:
.LBE5944:
.LBE5943:
	.loc 44 255 0
	tst	r1, #8388608
	beq	.L1476
.LVL1369:
.LBB5946:
.LBB5947:
	.loc 28 1254 0
	and	r3, ip, #1
.LBE5947:
.LBE5946:
.LBB5948:
.LBB5949:
	.loc 46 72 0
	orr	r2, r7, #3
	eor	r3, r3, #1
	str	r2, [r5, #72]
.LVL1370:
.LBE5949:
.LBE5948:
.LBB5950:
.LBB5951:
	.loc 45 55 0
	str	r3, [r5, #80]
.LVL1371:
.LBE5951:
.LBE5950:
.LBB5952:
.LBB5953:
	.loc 28 384 0
	ldr	r3, [r7]
.LVL1372:
.LBE5953:
.LBE5952:
	.loc 44 284 0
	bics	r3, r3, #15
.LVL1373:
	bne	.L1490
	.loc 44 285 0
	mov	r2, #0
.LBB5954:
.LBB5955:
	.loc 46 87 0
	orr	r3, r5, #2
.LVL1374:
.LBE5955:
.LBE5954:
	.loc 44 285 0
	str	r2, [r5, #136]
	.loc 44 286 0
	str	r2, [r5, #132]
.LVL1375:
.LBB5957:
.LBB5956:
	.loc 46 87 0
	stmia	r7, {r3, r5}
.LVL1376:
.L1491:
.LBE5956:
.LBE5957:
.LBB5958:
.LBB5959:
	.loc 28 525 0
	ldr	fp, [r9, #8]
.LBE5959:
.LBE5958:
	.loc 44 307 0
	mov	r2, #0
.LBB5961:
.LBB5962:
	.loc 45 63 0
	mov	r10, #3
	add	r5, r5, #4
.LVL1377:
.LBE5962:
.LBE5961:
.LBB5964:
.LBB5965:
	.loc 45 99 0
	mov	r3, r2
	add	ip, r8, #4
.LBE5965:
.LBE5964:
.LBB5971:
.LBB5960:
	.loc 28 525 0
	bic	fp, fp, #7
.LVL1378:
	and	r7, r6, #127
.LVL1379:
.LBE5960:
.LBE5971:
.LBB5972:
.LBB5963:
	.loc 45 63 0
	str	r10, [fp, #12]
.LVL1380:
.LBE5963:
.LBE5972:
	.loc 44 307 0
	str	r2, [lr, #48]
	str	r2, [r9, #4]
.LVL1381:
	.loc 44 308 0
	str	r2, [r9, #8]
	str	r2, [r9, #12]
.LVL1382:
	b	.L1492
.LVL1383:
.L1493:
.LBB5973:
.LBB5970:
.LBB5966:
.LBB5967:
	.loc 13 27 0
	ldr	r2, [r5, #4]!
.LVL1384:
.LBE5967:
.LBE5966:
	.loc 45 99 0
	add	r3, r3, #1
.LVL1385:
.LBB5968:
.LBB5969:
	.loc 13 21 0
	str	r2, [ip, #4]!
.LVL1386:
.L1492:
.LBE5969:
.LBE5968:
	.loc 45 99 0
	cmp	r3, r7
	bcc	.L1493
.LVL1387:
.LBE5970:
.LBE5973:
.LBB5974:
.LBB5975:
	.loc 46 64 0
	mov	r3, #1
.LVL1388:
.LBE5975:
.LBE5974:
.LBB5977:
.LBB5978:
	.loc 45 45 0
	mov	r1, r1, lsr #24
.LVL1389:
.LBE5978:
.LBE5977:
.LBB5986:
.LBB5976:
	.loc 46 64 0
	str	r3, [r8, #72]
.LVL1390:
.LBE5976:
.LBE5986:
.LBB5987:
.LBB5985:
	.loc 45 45 0
	bl	armv_contextSwitch_HWASID
.LVL1391:
	.loc 45 47 0
	ldr	r1, [r8, #120]
	movw	r3, #:lower16:.LANCHOR2
	movt	r3, #:upper16:.LANCHOR2
.LBB5979:
.LBB5980:
	.loc 45 31 0
	mov	r0, #0
.LBE5980:
.LBE5979:
	.loc 45 48 0
	str	r8, [r4]
.LVL1392:
.LBB5983:
.LBB5981:
	.loc 45 31 0
	mov	r2, r0
.LBE5981:
.LBE5983:
	.loc 45 47 0
	str	r1, [r3, #16]
.LBB5984:
.LBB5982:
	.loc 45 31 0
	add	r3, sp, #4
@ 31 "/home/neelesh/research/seL4-tutorials-manifest/kernel/include/arch/arm/arch/fastpath/fastpath.h" 1
	strex r2, r3, [r3]
@ 0 "" 2
.LVL1393:
.LBE5982:
.LBE5984:
.LBE5985:
.LBE5987:
	.loc 44 323 0
	bic	r1, r6, #3584
.LVL1394:
	mov	r2, r8
	bl	fastpath_restore
.LVL1395:
.L1521:
.LBB5988:
.LBB5945:
	bl	pde_pde_invalid_get_stored_asid_valid.part.125
.LVL1396:
.L1490:
.LBE5945:
.LBE5988:
	.loc 44 296 0
	mov	ip, #0
.LVL1397:
.LBB5989:
.LBB5990:
	.loc 46 87 0
	orr	r2, r5, #2
.LBE5990:
.LBE5989:
	.loc 44 294 0
	str	r5, [r3, #132]
	.loc 44 295 0
	str	r3, [r5, #136]
	.loc 44 296 0
	str	ip, [r5, #132]
.LVL1398:
.LBB5992:
.LBB5991:
	.loc 46 87 0
	str	r2, [r7]
	b	.L1491
.LBE5991:
.LBE5992:
	.cfi_endproc
.LFE489:
	.size	fastpath_reply_recv, .-fastpath_reply_recv
	.section	.boot.text
	.align	2
	.global	insert_region
	.type	insert_region, %function
insert_region:
.LFB490:
	.loc 25 29 0
	.cfi_startproc
	@ args = 0, pretend = 0, frame = 8
	@ frame_needed = 0, uses_anonymous_args = 0
	str	lr, [sp, #-4]!
	.cfi_def_cfa_offset 4
	.cfi_offset 14, -4
	sub	sp, sp, #12
	.cfi_def_cfa_offset 16
	.loc 25 29 0
	add	r3, sp, #8
	stmdb	r3, {r0, r1}
	ldmia	sp, {r1, r2}
.LVL1399:
	.loc 25 32 0
	cmp	r2, r1
	bcc	.L1530
.LVL1400:
	.loc 25 34 0
	moveq	r0, #1
	.loc 25 33 0
	beq	.L1524
.LVL1401:
	movw	r3, #:lower16:.LANCHOR3
	movt	r3, #:upper16:.LANCHOR3
	.loc 25 37 0 discriminator 1
	ldmia	r3, {r0, ip}
	cmp	ip, r0
	beq	.L1525
.LVL1402:
	.loc 25 37 0 is_stmt 0
	ldr	r0, [r3, #8]
	ldr	ip, [r3, #12]
	cmp	ip, r0
